ARM GAS  /tmp/cc9c6oGu.s 			page 1


   1              		.cpu cortex-m3
   2              		.arch armv7-m
   3              		.fpu softvfp
   4              		.eabi_attribute 20, 1
   5              		.eabi_attribute 21, 1
   6              		.eabi_attribute 23, 3
   7              		.eabi_attribute 24, 1
   8              		.eabi_attribute 25, 1
   9              		.eabi_attribute 26, 1
  10              		.eabi_attribute 30, 1
  11              		.eabi_attribute 34, 1
  12              		.eabi_attribute 18, 4
  13              		.file	"event_groups.c"
  14              		.text
  15              	.Ltext0:
  16              		.cfi_sections	.debug_frame
  17              		.file 1 "Middlewares/Third_Party/FreeRTOS/Source/event_groups.c"
  18              		.section	.text.prvTestWaitCondition,"ax",%progbits
  19              		.align	1
  20              		.syntax unified
  21              		.thumb
  22              		.thumb_func
  24              	prvTestWaitCondition:
  25              	.LVL0:
  26              	.LFB15:
   1:Middlewares/Third_Party/FreeRTOS/Source/event_groups.c **** /*
   2:Middlewares/Third_Party/FreeRTOS/Source/event_groups.c ****  * FreeRTOS Kernel V10.0.1
   3:Middlewares/Third_Party/FreeRTOS/Source/event_groups.c ****  * Copyright (C) 2017 Amazon.com, Inc. or its affiliates.  All Rights Reserved.
   4:Middlewares/Third_Party/FreeRTOS/Source/event_groups.c ****  *
   5:Middlewares/Third_Party/FreeRTOS/Source/event_groups.c ****  * Permission is hereby granted, free of charge, to any person obtaining a copy of
   6:Middlewares/Third_Party/FreeRTOS/Source/event_groups.c ****  * this software and associated documentation files (the "Software"), to deal in
   7:Middlewares/Third_Party/FreeRTOS/Source/event_groups.c ****  * the Software without restriction, including without limitation the rights to
   8:Middlewares/Third_Party/FreeRTOS/Source/event_groups.c ****  * use, copy, modify, merge, publish, distribute, sublicense, and/or sell copies of
   9:Middlewares/Third_Party/FreeRTOS/Source/event_groups.c ****  * the Software, and to permit persons to whom the Software is furnished to do so,
  10:Middlewares/Third_Party/FreeRTOS/Source/event_groups.c ****  * subject to the following conditions:
  11:Middlewares/Third_Party/FreeRTOS/Source/event_groups.c ****  *
  12:Middlewares/Third_Party/FreeRTOS/Source/event_groups.c ****  * The above copyright notice and this permission notice shall be included in all
  13:Middlewares/Third_Party/FreeRTOS/Source/event_groups.c ****  * copies or substantial portions of the Software.
  14:Middlewares/Third_Party/FreeRTOS/Source/event_groups.c ****  *
  15:Middlewares/Third_Party/FreeRTOS/Source/event_groups.c ****  * THE SOFTWARE IS PROVIDED "AS IS", WITHOUT WARRANTY OF ANY KIND, EXPRESS OR
  16:Middlewares/Third_Party/FreeRTOS/Source/event_groups.c ****  * IMPLIED, INCLUDING BUT NOT LIMITED TO THE WARRANTIES OF MERCHANTABILITY, FITNESS
  17:Middlewares/Third_Party/FreeRTOS/Source/event_groups.c ****  * FOR A PARTICULAR PURPOSE AND NONINFRINGEMENT. IN NO EVENT SHALL THE AUTHORS OR
  18:Middlewares/Third_Party/FreeRTOS/Source/event_groups.c ****  * COPYRIGHT HOLDERS BE LIABLE FOR ANY CLAIM, DAMAGES OR OTHER LIABILITY, WHETHER
  19:Middlewares/Third_Party/FreeRTOS/Source/event_groups.c ****  * IN AN ACTION OF CONTRACT, TORT OR OTHERWISE, ARISING FROM, OUT OF OR IN
  20:Middlewares/Third_Party/FreeRTOS/Source/event_groups.c ****  * CONNECTION WITH THE SOFTWARE OR THE USE OR OTHER DEALINGS IN THE SOFTWARE.
  21:Middlewares/Third_Party/FreeRTOS/Source/event_groups.c ****  *
  22:Middlewares/Third_Party/FreeRTOS/Source/event_groups.c ****  * http://www.FreeRTOS.org
  23:Middlewares/Third_Party/FreeRTOS/Source/event_groups.c ****  * http://aws.amazon.com/freertos
  24:Middlewares/Third_Party/FreeRTOS/Source/event_groups.c ****  *
  25:Middlewares/Third_Party/FreeRTOS/Source/event_groups.c ****  * 1 tab == 4 spaces!
  26:Middlewares/Third_Party/FreeRTOS/Source/event_groups.c ****  */
  27:Middlewares/Third_Party/FreeRTOS/Source/event_groups.c **** 
  28:Middlewares/Third_Party/FreeRTOS/Source/event_groups.c **** /* Standard includes. */
  29:Middlewares/Third_Party/FreeRTOS/Source/event_groups.c **** #include <stdlib.h>
  30:Middlewares/Third_Party/FreeRTOS/Source/event_groups.c **** 
  31:Middlewares/Third_Party/FreeRTOS/Source/event_groups.c **** /* Defining MPU_WRAPPERS_INCLUDED_FROM_API_FILE prevents task.h from redefining
  32:Middlewares/Third_Party/FreeRTOS/Source/event_groups.c **** all the API functions to use the MPU wrappers.  That should only be done when
ARM GAS  /tmp/cc9c6oGu.s 			page 2


  33:Middlewares/Third_Party/FreeRTOS/Source/event_groups.c **** task.h is included from an application file. */
  34:Middlewares/Third_Party/FreeRTOS/Source/event_groups.c **** #define MPU_WRAPPERS_INCLUDED_FROM_API_FILE
  35:Middlewares/Third_Party/FreeRTOS/Source/event_groups.c **** 
  36:Middlewares/Third_Party/FreeRTOS/Source/event_groups.c **** /* FreeRTOS includes. */
  37:Middlewares/Third_Party/FreeRTOS/Source/event_groups.c **** #include "FreeRTOS.h"
  38:Middlewares/Third_Party/FreeRTOS/Source/event_groups.c **** #include "task.h"
  39:Middlewares/Third_Party/FreeRTOS/Source/event_groups.c **** #include "timers.h"
  40:Middlewares/Third_Party/FreeRTOS/Source/event_groups.c **** #include "event_groups.h"
  41:Middlewares/Third_Party/FreeRTOS/Source/event_groups.c **** 
  42:Middlewares/Third_Party/FreeRTOS/Source/event_groups.c **** /* Lint e961 and e750 are suppressed as a MISRA exception justified because the
  43:Middlewares/Third_Party/FreeRTOS/Source/event_groups.c **** MPU ports require MPU_WRAPPERS_INCLUDED_FROM_API_FILE to be defined for the
  44:Middlewares/Third_Party/FreeRTOS/Source/event_groups.c **** header files above, but not in this file, in order to generate the correct
  45:Middlewares/Third_Party/FreeRTOS/Source/event_groups.c **** privileged Vs unprivileged linkage and placement. */
  46:Middlewares/Third_Party/FreeRTOS/Source/event_groups.c **** #undef MPU_WRAPPERS_INCLUDED_FROM_API_FILE /*lint !e961 !e750. */
  47:Middlewares/Third_Party/FreeRTOS/Source/event_groups.c **** 
  48:Middlewares/Third_Party/FreeRTOS/Source/event_groups.c **** /* The following bit fields convey control information in a task's event list
  49:Middlewares/Third_Party/FreeRTOS/Source/event_groups.c **** item value.  It is important they don't clash with the
  50:Middlewares/Third_Party/FreeRTOS/Source/event_groups.c **** taskEVENT_LIST_ITEM_VALUE_IN_USE definition. */
  51:Middlewares/Third_Party/FreeRTOS/Source/event_groups.c **** #if configUSE_16_BIT_TICKS == 1
  52:Middlewares/Third_Party/FreeRTOS/Source/event_groups.c **** 	#define eventCLEAR_EVENTS_ON_EXIT_BIT	0x0100U
  53:Middlewares/Third_Party/FreeRTOS/Source/event_groups.c **** 	#define eventUNBLOCKED_DUE_TO_BIT_SET	0x0200U
  54:Middlewares/Third_Party/FreeRTOS/Source/event_groups.c **** 	#define eventWAIT_FOR_ALL_BITS			0x0400U
  55:Middlewares/Third_Party/FreeRTOS/Source/event_groups.c **** 	#define eventEVENT_BITS_CONTROL_BYTES	0xff00U
  56:Middlewares/Third_Party/FreeRTOS/Source/event_groups.c **** #else
  57:Middlewares/Third_Party/FreeRTOS/Source/event_groups.c **** 	#define eventCLEAR_EVENTS_ON_EXIT_BIT	0x01000000UL
  58:Middlewares/Third_Party/FreeRTOS/Source/event_groups.c **** 	#define eventUNBLOCKED_DUE_TO_BIT_SET	0x02000000UL
  59:Middlewares/Third_Party/FreeRTOS/Source/event_groups.c **** 	#define eventWAIT_FOR_ALL_BITS			0x04000000UL
  60:Middlewares/Third_Party/FreeRTOS/Source/event_groups.c **** 	#define eventEVENT_BITS_CONTROL_BYTES	0xff000000UL
  61:Middlewares/Third_Party/FreeRTOS/Source/event_groups.c **** #endif
  62:Middlewares/Third_Party/FreeRTOS/Source/event_groups.c **** 
  63:Middlewares/Third_Party/FreeRTOS/Source/event_groups.c **** typedef struct xEventGroupDefinition
  64:Middlewares/Third_Party/FreeRTOS/Source/event_groups.c **** {
  65:Middlewares/Third_Party/FreeRTOS/Source/event_groups.c **** 	EventBits_t uxEventBits;
  66:Middlewares/Third_Party/FreeRTOS/Source/event_groups.c **** 	List_t xTasksWaitingForBits;		/*< List of tasks waiting for a bit to be set. */
  67:Middlewares/Third_Party/FreeRTOS/Source/event_groups.c **** 
  68:Middlewares/Third_Party/FreeRTOS/Source/event_groups.c **** 	#if( configUSE_TRACE_FACILITY == 1 )
  69:Middlewares/Third_Party/FreeRTOS/Source/event_groups.c **** 		UBaseType_t uxEventGroupNumber;
  70:Middlewares/Third_Party/FreeRTOS/Source/event_groups.c **** 	#endif
  71:Middlewares/Third_Party/FreeRTOS/Source/event_groups.c **** 
  72:Middlewares/Third_Party/FreeRTOS/Source/event_groups.c **** 	#if( ( configSUPPORT_STATIC_ALLOCATION == 1 ) && ( configSUPPORT_DYNAMIC_ALLOCATION == 1 ) )
  73:Middlewares/Third_Party/FreeRTOS/Source/event_groups.c **** 		uint8_t ucStaticallyAllocated; /*< Set to pdTRUE if the event group is statically allocated to en
  74:Middlewares/Third_Party/FreeRTOS/Source/event_groups.c **** 	#endif
  75:Middlewares/Third_Party/FreeRTOS/Source/event_groups.c **** } EventGroup_t;
  76:Middlewares/Third_Party/FreeRTOS/Source/event_groups.c **** 
  77:Middlewares/Third_Party/FreeRTOS/Source/event_groups.c **** /*-----------------------------------------------------------*/
  78:Middlewares/Third_Party/FreeRTOS/Source/event_groups.c **** 
  79:Middlewares/Third_Party/FreeRTOS/Source/event_groups.c **** /*
  80:Middlewares/Third_Party/FreeRTOS/Source/event_groups.c ****  * Test the bits set in uxCurrentEventBits to see if the wait condition is met.
  81:Middlewares/Third_Party/FreeRTOS/Source/event_groups.c ****  * The wait condition is defined by xWaitForAllBits.  If xWaitForAllBits is
  82:Middlewares/Third_Party/FreeRTOS/Source/event_groups.c ****  * pdTRUE then the wait condition is met if all the bits set in uxBitsToWaitFor
  83:Middlewares/Third_Party/FreeRTOS/Source/event_groups.c ****  * are also set in uxCurrentEventBits.  If xWaitForAllBits is pdFALSE then the
  84:Middlewares/Third_Party/FreeRTOS/Source/event_groups.c ****  * wait condition is met if any of the bits set in uxBitsToWait for are also set
  85:Middlewares/Third_Party/FreeRTOS/Source/event_groups.c ****  * in uxCurrentEventBits.
  86:Middlewares/Third_Party/FreeRTOS/Source/event_groups.c ****  */
  87:Middlewares/Third_Party/FreeRTOS/Source/event_groups.c **** static BaseType_t prvTestWaitCondition( const EventBits_t uxCurrentEventBits, const EventBits_t uxB
  88:Middlewares/Third_Party/FreeRTOS/Source/event_groups.c **** 
  89:Middlewares/Third_Party/FreeRTOS/Source/event_groups.c **** /*-----------------------------------------------------------*/
ARM GAS  /tmp/cc9c6oGu.s 			page 3


  90:Middlewares/Third_Party/FreeRTOS/Source/event_groups.c **** 
  91:Middlewares/Third_Party/FreeRTOS/Source/event_groups.c **** #if( configSUPPORT_STATIC_ALLOCATION == 1 )
  92:Middlewares/Third_Party/FreeRTOS/Source/event_groups.c **** 
  93:Middlewares/Third_Party/FreeRTOS/Source/event_groups.c **** 	EventGroupHandle_t xEventGroupCreateStatic( StaticEventGroup_t *pxEventGroupBuffer )
  94:Middlewares/Third_Party/FreeRTOS/Source/event_groups.c **** 	{
  95:Middlewares/Third_Party/FreeRTOS/Source/event_groups.c **** 	EventGroup_t *pxEventBits;
  96:Middlewares/Third_Party/FreeRTOS/Source/event_groups.c **** 
  97:Middlewares/Third_Party/FreeRTOS/Source/event_groups.c **** 		/* A StaticEventGroup_t object must be provided. */
  98:Middlewares/Third_Party/FreeRTOS/Source/event_groups.c **** 		configASSERT( pxEventGroupBuffer );
  99:Middlewares/Third_Party/FreeRTOS/Source/event_groups.c **** 
 100:Middlewares/Third_Party/FreeRTOS/Source/event_groups.c **** 		#if( configASSERT_DEFINED == 1 )
 101:Middlewares/Third_Party/FreeRTOS/Source/event_groups.c **** 		{
 102:Middlewares/Third_Party/FreeRTOS/Source/event_groups.c **** 			/* Sanity check that the size of the structure used to declare a
 103:Middlewares/Third_Party/FreeRTOS/Source/event_groups.c **** 			variable of type StaticEventGroup_t equals the size of the real
 104:Middlewares/Third_Party/FreeRTOS/Source/event_groups.c **** 			event group structure. */
 105:Middlewares/Third_Party/FreeRTOS/Source/event_groups.c **** 			volatile size_t xSize = sizeof( StaticEventGroup_t );
 106:Middlewares/Third_Party/FreeRTOS/Source/event_groups.c **** 			configASSERT( xSize == sizeof( EventGroup_t ) );
 107:Middlewares/Third_Party/FreeRTOS/Source/event_groups.c **** 		}
 108:Middlewares/Third_Party/FreeRTOS/Source/event_groups.c **** 		#endif /* configASSERT_DEFINED */
 109:Middlewares/Third_Party/FreeRTOS/Source/event_groups.c **** 
 110:Middlewares/Third_Party/FreeRTOS/Source/event_groups.c **** 		/* The user has provided a statically allocated event group - use it. */
 111:Middlewares/Third_Party/FreeRTOS/Source/event_groups.c **** 		pxEventBits = ( EventGroup_t * ) pxEventGroupBuffer; /*lint !e740 EventGroup_t and StaticEventGro
 112:Middlewares/Third_Party/FreeRTOS/Source/event_groups.c **** 
 113:Middlewares/Third_Party/FreeRTOS/Source/event_groups.c **** 		if( pxEventBits != NULL )
 114:Middlewares/Third_Party/FreeRTOS/Source/event_groups.c **** 		{
 115:Middlewares/Third_Party/FreeRTOS/Source/event_groups.c **** 			pxEventBits->uxEventBits = 0;
 116:Middlewares/Third_Party/FreeRTOS/Source/event_groups.c **** 			vListInitialise( &( pxEventBits->xTasksWaitingForBits ) );
 117:Middlewares/Third_Party/FreeRTOS/Source/event_groups.c **** 
 118:Middlewares/Third_Party/FreeRTOS/Source/event_groups.c **** 			#if( configSUPPORT_DYNAMIC_ALLOCATION == 1 )
 119:Middlewares/Third_Party/FreeRTOS/Source/event_groups.c **** 			{
 120:Middlewares/Third_Party/FreeRTOS/Source/event_groups.c **** 				/* Both static and dynamic allocation can be used, so note that
 121:Middlewares/Third_Party/FreeRTOS/Source/event_groups.c **** 				this event group was created statically in case the event group
 122:Middlewares/Third_Party/FreeRTOS/Source/event_groups.c **** 				is later deleted. */
 123:Middlewares/Third_Party/FreeRTOS/Source/event_groups.c **** 				pxEventBits->ucStaticallyAllocated = pdTRUE;
 124:Middlewares/Third_Party/FreeRTOS/Source/event_groups.c **** 			}
 125:Middlewares/Third_Party/FreeRTOS/Source/event_groups.c **** 			#endif /* configSUPPORT_DYNAMIC_ALLOCATION */
 126:Middlewares/Third_Party/FreeRTOS/Source/event_groups.c **** 
 127:Middlewares/Third_Party/FreeRTOS/Source/event_groups.c **** 			traceEVENT_GROUP_CREATE( pxEventBits );
 128:Middlewares/Third_Party/FreeRTOS/Source/event_groups.c **** 		}
 129:Middlewares/Third_Party/FreeRTOS/Source/event_groups.c **** 		else
 130:Middlewares/Third_Party/FreeRTOS/Source/event_groups.c **** 		{
 131:Middlewares/Third_Party/FreeRTOS/Source/event_groups.c **** 			traceEVENT_GROUP_CREATE_FAILED();
 132:Middlewares/Third_Party/FreeRTOS/Source/event_groups.c **** 		}
 133:Middlewares/Third_Party/FreeRTOS/Source/event_groups.c **** 
 134:Middlewares/Third_Party/FreeRTOS/Source/event_groups.c **** 		return ( EventGroupHandle_t ) pxEventBits;
 135:Middlewares/Third_Party/FreeRTOS/Source/event_groups.c **** 	}
 136:Middlewares/Third_Party/FreeRTOS/Source/event_groups.c **** 
 137:Middlewares/Third_Party/FreeRTOS/Source/event_groups.c **** #endif /* configSUPPORT_STATIC_ALLOCATION */
 138:Middlewares/Third_Party/FreeRTOS/Source/event_groups.c **** /*-----------------------------------------------------------*/
 139:Middlewares/Third_Party/FreeRTOS/Source/event_groups.c **** 
 140:Middlewares/Third_Party/FreeRTOS/Source/event_groups.c **** #if( configSUPPORT_DYNAMIC_ALLOCATION == 1 )
 141:Middlewares/Third_Party/FreeRTOS/Source/event_groups.c **** 
 142:Middlewares/Third_Party/FreeRTOS/Source/event_groups.c **** 	EventGroupHandle_t xEventGroupCreate( void )
 143:Middlewares/Third_Party/FreeRTOS/Source/event_groups.c **** 	{
 144:Middlewares/Third_Party/FreeRTOS/Source/event_groups.c **** 	EventGroup_t *pxEventBits;
 145:Middlewares/Third_Party/FreeRTOS/Source/event_groups.c **** 
 146:Middlewares/Third_Party/FreeRTOS/Source/event_groups.c **** 		/* Allocate the event group. */
ARM GAS  /tmp/cc9c6oGu.s 			page 4


 147:Middlewares/Third_Party/FreeRTOS/Source/event_groups.c **** 		pxEventBits = ( EventGroup_t * ) pvPortMalloc( sizeof( EventGroup_t ) );
 148:Middlewares/Third_Party/FreeRTOS/Source/event_groups.c **** 
 149:Middlewares/Third_Party/FreeRTOS/Source/event_groups.c **** 		if( pxEventBits != NULL )
 150:Middlewares/Third_Party/FreeRTOS/Source/event_groups.c **** 		{
 151:Middlewares/Third_Party/FreeRTOS/Source/event_groups.c **** 			pxEventBits->uxEventBits = 0;
 152:Middlewares/Third_Party/FreeRTOS/Source/event_groups.c **** 			vListInitialise( &( pxEventBits->xTasksWaitingForBits ) );
 153:Middlewares/Third_Party/FreeRTOS/Source/event_groups.c **** 
 154:Middlewares/Third_Party/FreeRTOS/Source/event_groups.c **** 			#if( configSUPPORT_STATIC_ALLOCATION == 1 )
 155:Middlewares/Third_Party/FreeRTOS/Source/event_groups.c **** 			{
 156:Middlewares/Third_Party/FreeRTOS/Source/event_groups.c **** 				/* Both static and dynamic allocation can be used, so note this
 157:Middlewares/Third_Party/FreeRTOS/Source/event_groups.c **** 				event group was allocated statically in case the event group is
 158:Middlewares/Third_Party/FreeRTOS/Source/event_groups.c **** 				later deleted. */
 159:Middlewares/Third_Party/FreeRTOS/Source/event_groups.c **** 				pxEventBits->ucStaticallyAllocated = pdFALSE;
 160:Middlewares/Third_Party/FreeRTOS/Source/event_groups.c **** 			}
 161:Middlewares/Third_Party/FreeRTOS/Source/event_groups.c **** 			#endif /* configSUPPORT_STATIC_ALLOCATION */
 162:Middlewares/Third_Party/FreeRTOS/Source/event_groups.c **** 
 163:Middlewares/Third_Party/FreeRTOS/Source/event_groups.c **** 			traceEVENT_GROUP_CREATE( pxEventBits );
 164:Middlewares/Third_Party/FreeRTOS/Source/event_groups.c **** 		}
 165:Middlewares/Third_Party/FreeRTOS/Source/event_groups.c **** 		else
 166:Middlewares/Third_Party/FreeRTOS/Source/event_groups.c **** 		{
 167:Middlewares/Third_Party/FreeRTOS/Source/event_groups.c **** 			traceEVENT_GROUP_CREATE_FAILED();
 168:Middlewares/Third_Party/FreeRTOS/Source/event_groups.c **** 		}
 169:Middlewares/Third_Party/FreeRTOS/Source/event_groups.c **** 
 170:Middlewares/Third_Party/FreeRTOS/Source/event_groups.c **** 		return ( EventGroupHandle_t ) pxEventBits;
 171:Middlewares/Third_Party/FreeRTOS/Source/event_groups.c **** 	}
 172:Middlewares/Third_Party/FreeRTOS/Source/event_groups.c **** 
 173:Middlewares/Third_Party/FreeRTOS/Source/event_groups.c **** #endif /* configSUPPORT_DYNAMIC_ALLOCATION */
 174:Middlewares/Third_Party/FreeRTOS/Source/event_groups.c **** /*-----------------------------------------------------------*/
 175:Middlewares/Third_Party/FreeRTOS/Source/event_groups.c **** 
 176:Middlewares/Third_Party/FreeRTOS/Source/event_groups.c **** EventBits_t xEventGroupSync( EventGroupHandle_t xEventGroup, const EventBits_t uxBitsToSet, const E
 177:Middlewares/Third_Party/FreeRTOS/Source/event_groups.c **** {
 178:Middlewares/Third_Party/FreeRTOS/Source/event_groups.c **** EventBits_t uxOriginalBitValue, uxReturn;
 179:Middlewares/Third_Party/FreeRTOS/Source/event_groups.c **** EventGroup_t *pxEventBits = ( EventGroup_t * ) xEventGroup;
 180:Middlewares/Third_Party/FreeRTOS/Source/event_groups.c **** BaseType_t xAlreadyYielded;
 181:Middlewares/Third_Party/FreeRTOS/Source/event_groups.c **** BaseType_t xTimeoutOccurred = pdFALSE;
 182:Middlewares/Third_Party/FreeRTOS/Source/event_groups.c **** 
 183:Middlewares/Third_Party/FreeRTOS/Source/event_groups.c **** 	configASSERT( ( uxBitsToWaitFor & eventEVENT_BITS_CONTROL_BYTES ) == 0 );
 184:Middlewares/Third_Party/FreeRTOS/Source/event_groups.c **** 	configASSERT( uxBitsToWaitFor != 0 );
 185:Middlewares/Third_Party/FreeRTOS/Source/event_groups.c **** 	#if ( ( INCLUDE_xTaskGetSchedulerState == 1 ) || ( configUSE_TIMERS == 1 ) )
 186:Middlewares/Third_Party/FreeRTOS/Source/event_groups.c **** 	{
 187:Middlewares/Third_Party/FreeRTOS/Source/event_groups.c **** 		configASSERT( !( ( xTaskGetSchedulerState() == taskSCHEDULER_SUSPENDED ) && ( xTicksToWait != 0 )
 188:Middlewares/Third_Party/FreeRTOS/Source/event_groups.c **** 	}
 189:Middlewares/Third_Party/FreeRTOS/Source/event_groups.c **** 	#endif
 190:Middlewares/Third_Party/FreeRTOS/Source/event_groups.c **** 
 191:Middlewares/Third_Party/FreeRTOS/Source/event_groups.c **** 	vTaskSuspendAll();
 192:Middlewares/Third_Party/FreeRTOS/Source/event_groups.c **** 	{
 193:Middlewares/Third_Party/FreeRTOS/Source/event_groups.c **** 		uxOriginalBitValue = pxEventBits->uxEventBits;
 194:Middlewares/Third_Party/FreeRTOS/Source/event_groups.c **** 
 195:Middlewares/Third_Party/FreeRTOS/Source/event_groups.c **** 		( void ) xEventGroupSetBits( xEventGroup, uxBitsToSet );
 196:Middlewares/Third_Party/FreeRTOS/Source/event_groups.c **** 
 197:Middlewares/Third_Party/FreeRTOS/Source/event_groups.c **** 		if( ( ( uxOriginalBitValue | uxBitsToSet ) & uxBitsToWaitFor ) == uxBitsToWaitFor )
 198:Middlewares/Third_Party/FreeRTOS/Source/event_groups.c **** 		{
 199:Middlewares/Third_Party/FreeRTOS/Source/event_groups.c **** 			/* All the rendezvous bits are now set - no need to block. */
 200:Middlewares/Third_Party/FreeRTOS/Source/event_groups.c **** 			uxReturn = ( uxOriginalBitValue | uxBitsToSet );
 201:Middlewares/Third_Party/FreeRTOS/Source/event_groups.c **** 
 202:Middlewares/Third_Party/FreeRTOS/Source/event_groups.c **** 			/* Rendezvous always clear the bits.  They will have been cleared
 203:Middlewares/Third_Party/FreeRTOS/Source/event_groups.c **** 			already unless this is the only task in the rendezvous. */
ARM GAS  /tmp/cc9c6oGu.s 			page 5


 204:Middlewares/Third_Party/FreeRTOS/Source/event_groups.c **** 			pxEventBits->uxEventBits &= ~uxBitsToWaitFor;
 205:Middlewares/Third_Party/FreeRTOS/Source/event_groups.c **** 
 206:Middlewares/Third_Party/FreeRTOS/Source/event_groups.c **** 			xTicksToWait = 0;
 207:Middlewares/Third_Party/FreeRTOS/Source/event_groups.c **** 		}
 208:Middlewares/Third_Party/FreeRTOS/Source/event_groups.c **** 		else
 209:Middlewares/Third_Party/FreeRTOS/Source/event_groups.c **** 		{
 210:Middlewares/Third_Party/FreeRTOS/Source/event_groups.c **** 			if( xTicksToWait != ( TickType_t ) 0 )
 211:Middlewares/Third_Party/FreeRTOS/Source/event_groups.c **** 			{
 212:Middlewares/Third_Party/FreeRTOS/Source/event_groups.c **** 				traceEVENT_GROUP_SYNC_BLOCK( xEventGroup, uxBitsToSet, uxBitsToWaitFor );
 213:Middlewares/Third_Party/FreeRTOS/Source/event_groups.c **** 
 214:Middlewares/Third_Party/FreeRTOS/Source/event_groups.c **** 				/* Store the bits that the calling task is waiting for in the
 215:Middlewares/Third_Party/FreeRTOS/Source/event_groups.c **** 				task's event list item so the kernel knows when a match is
 216:Middlewares/Third_Party/FreeRTOS/Source/event_groups.c **** 				found.  Then enter the blocked state. */
 217:Middlewares/Third_Party/FreeRTOS/Source/event_groups.c **** 				vTaskPlaceOnUnorderedEventList( &( pxEventBits->xTasksWaitingForBits ), ( uxBitsToWaitFor | eve
 218:Middlewares/Third_Party/FreeRTOS/Source/event_groups.c **** 
 219:Middlewares/Third_Party/FreeRTOS/Source/event_groups.c **** 				/* This assignment is obsolete as uxReturn will get set after
 220:Middlewares/Third_Party/FreeRTOS/Source/event_groups.c **** 				the task unblocks, but some compilers mistakenly generate a
 221:Middlewares/Third_Party/FreeRTOS/Source/event_groups.c **** 				warning about uxReturn being returned without being set if the
 222:Middlewares/Third_Party/FreeRTOS/Source/event_groups.c **** 				assignment is omitted. */
 223:Middlewares/Third_Party/FreeRTOS/Source/event_groups.c **** 				uxReturn = 0;
 224:Middlewares/Third_Party/FreeRTOS/Source/event_groups.c **** 			}
 225:Middlewares/Third_Party/FreeRTOS/Source/event_groups.c **** 			else
 226:Middlewares/Third_Party/FreeRTOS/Source/event_groups.c **** 			{
 227:Middlewares/Third_Party/FreeRTOS/Source/event_groups.c **** 				/* The rendezvous bits were not set, but no block time was
 228:Middlewares/Third_Party/FreeRTOS/Source/event_groups.c **** 				specified - just return the current event bit value. */
 229:Middlewares/Third_Party/FreeRTOS/Source/event_groups.c **** 				uxReturn = pxEventBits->uxEventBits;
 230:Middlewares/Third_Party/FreeRTOS/Source/event_groups.c **** 				xTimeoutOccurred = pdTRUE;
 231:Middlewares/Third_Party/FreeRTOS/Source/event_groups.c **** 			}
 232:Middlewares/Third_Party/FreeRTOS/Source/event_groups.c **** 		}
 233:Middlewares/Third_Party/FreeRTOS/Source/event_groups.c **** 	}
 234:Middlewares/Third_Party/FreeRTOS/Source/event_groups.c **** 	xAlreadyYielded = xTaskResumeAll();
 235:Middlewares/Third_Party/FreeRTOS/Source/event_groups.c **** 
 236:Middlewares/Third_Party/FreeRTOS/Source/event_groups.c **** 	if( xTicksToWait != ( TickType_t ) 0 )
 237:Middlewares/Third_Party/FreeRTOS/Source/event_groups.c **** 	{
 238:Middlewares/Third_Party/FreeRTOS/Source/event_groups.c **** 		if( xAlreadyYielded == pdFALSE )
 239:Middlewares/Third_Party/FreeRTOS/Source/event_groups.c **** 		{
 240:Middlewares/Third_Party/FreeRTOS/Source/event_groups.c **** 			portYIELD_WITHIN_API();
 241:Middlewares/Third_Party/FreeRTOS/Source/event_groups.c **** 		}
 242:Middlewares/Third_Party/FreeRTOS/Source/event_groups.c **** 		else
 243:Middlewares/Third_Party/FreeRTOS/Source/event_groups.c **** 		{
 244:Middlewares/Third_Party/FreeRTOS/Source/event_groups.c **** 			mtCOVERAGE_TEST_MARKER();
 245:Middlewares/Third_Party/FreeRTOS/Source/event_groups.c **** 		}
 246:Middlewares/Third_Party/FreeRTOS/Source/event_groups.c **** 
 247:Middlewares/Third_Party/FreeRTOS/Source/event_groups.c **** 		/* The task blocked to wait for its required bits to be set - at this
 248:Middlewares/Third_Party/FreeRTOS/Source/event_groups.c **** 		point either the required bits were set or the block time expired.  If
 249:Middlewares/Third_Party/FreeRTOS/Source/event_groups.c **** 		the required bits were set they will have been stored in the task's
 250:Middlewares/Third_Party/FreeRTOS/Source/event_groups.c **** 		event list item, and they should now be retrieved then cleared. */
 251:Middlewares/Third_Party/FreeRTOS/Source/event_groups.c **** 		uxReturn = uxTaskResetEventItemValue();
 252:Middlewares/Third_Party/FreeRTOS/Source/event_groups.c **** 
 253:Middlewares/Third_Party/FreeRTOS/Source/event_groups.c **** 		if( ( uxReturn & eventUNBLOCKED_DUE_TO_BIT_SET ) == ( EventBits_t ) 0 )
 254:Middlewares/Third_Party/FreeRTOS/Source/event_groups.c **** 		{
 255:Middlewares/Third_Party/FreeRTOS/Source/event_groups.c **** 			/* The task timed out, just return the current event bit value. */
 256:Middlewares/Third_Party/FreeRTOS/Source/event_groups.c **** 			taskENTER_CRITICAL();
 257:Middlewares/Third_Party/FreeRTOS/Source/event_groups.c **** 			{
 258:Middlewares/Third_Party/FreeRTOS/Source/event_groups.c **** 				uxReturn = pxEventBits->uxEventBits;
 259:Middlewares/Third_Party/FreeRTOS/Source/event_groups.c **** 
 260:Middlewares/Third_Party/FreeRTOS/Source/event_groups.c **** 				/* Although the task got here because it timed out before the
ARM GAS  /tmp/cc9c6oGu.s 			page 6


 261:Middlewares/Third_Party/FreeRTOS/Source/event_groups.c **** 				bits it was waiting for were set, it is possible that since it
 262:Middlewares/Third_Party/FreeRTOS/Source/event_groups.c **** 				unblocked another task has set the bits.  If this is the case
 263:Middlewares/Third_Party/FreeRTOS/Source/event_groups.c **** 				then it needs to clear the bits before exiting. */
 264:Middlewares/Third_Party/FreeRTOS/Source/event_groups.c **** 				if( ( uxReturn & uxBitsToWaitFor ) == uxBitsToWaitFor )
 265:Middlewares/Third_Party/FreeRTOS/Source/event_groups.c **** 				{
 266:Middlewares/Third_Party/FreeRTOS/Source/event_groups.c **** 					pxEventBits->uxEventBits &= ~uxBitsToWaitFor;
 267:Middlewares/Third_Party/FreeRTOS/Source/event_groups.c **** 				}
 268:Middlewares/Third_Party/FreeRTOS/Source/event_groups.c **** 				else
 269:Middlewares/Third_Party/FreeRTOS/Source/event_groups.c **** 				{
 270:Middlewares/Third_Party/FreeRTOS/Source/event_groups.c **** 					mtCOVERAGE_TEST_MARKER();
 271:Middlewares/Third_Party/FreeRTOS/Source/event_groups.c **** 				}
 272:Middlewares/Third_Party/FreeRTOS/Source/event_groups.c **** 			}
 273:Middlewares/Third_Party/FreeRTOS/Source/event_groups.c **** 			taskEXIT_CRITICAL();
 274:Middlewares/Third_Party/FreeRTOS/Source/event_groups.c **** 
 275:Middlewares/Third_Party/FreeRTOS/Source/event_groups.c **** 			xTimeoutOccurred = pdTRUE;
 276:Middlewares/Third_Party/FreeRTOS/Source/event_groups.c **** 		}
 277:Middlewares/Third_Party/FreeRTOS/Source/event_groups.c **** 		else
 278:Middlewares/Third_Party/FreeRTOS/Source/event_groups.c **** 		{
 279:Middlewares/Third_Party/FreeRTOS/Source/event_groups.c **** 			/* The task unblocked because the bits were set. */
 280:Middlewares/Third_Party/FreeRTOS/Source/event_groups.c **** 		}
 281:Middlewares/Third_Party/FreeRTOS/Source/event_groups.c **** 
 282:Middlewares/Third_Party/FreeRTOS/Source/event_groups.c **** 		/* Control bits might be set as the task had blocked should not be
 283:Middlewares/Third_Party/FreeRTOS/Source/event_groups.c **** 		returned. */
 284:Middlewares/Third_Party/FreeRTOS/Source/event_groups.c **** 		uxReturn &= ~eventEVENT_BITS_CONTROL_BYTES;
 285:Middlewares/Third_Party/FreeRTOS/Source/event_groups.c **** 	}
 286:Middlewares/Third_Party/FreeRTOS/Source/event_groups.c **** 
 287:Middlewares/Third_Party/FreeRTOS/Source/event_groups.c **** 	traceEVENT_GROUP_SYNC_END( xEventGroup, uxBitsToSet, uxBitsToWaitFor, xTimeoutOccurred );
 288:Middlewares/Third_Party/FreeRTOS/Source/event_groups.c **** 
 289:Middlewares/Third_Party/FreeRTOS/Source/event_groups.c **** 	/* Prevent compiler warnings when trace macros are not used. */
 290:Middlewares/Third_Party/FreeRTOS/Source/event_groups.c **** 	( void ) xTimeoutOccurred;
 291:Middlewares/Third_Party/FreeRTOS/Source/event_groups.c **** 
 292:Middlewares/Third_Party/FreeRTOS/Source/event_groups.c **** 	return uxReturn;
 293:Middlewares/Third_Party/FreeRTOS/Source/event_groups.c **** }
 294:Middlewares/Third_Party/FreeRTOS/Source/event_groups.c **** /*-----------------------------------------------------------*/
 295:Middlewares/Third_Party/FreeRTOS/Source/event_groups.c **** 
 296:Middlewares/Third_Party/FreeRTOS/Source/event_groups.c **** EventBits_t xEventGroupWaitBits( EventGroupHandle_t xEventGroup, const EventBits_t uxBitsToWaitFor,
 297:Middlewares/Third_Party/FreeRTOS/Source/event_groups.c **** {
 298:Middlewares/Third_Party/FreeRTOS/Source/event_groups.c **** EventGroup_t *pxEventBits = ( EventGroup_t * ) xEventGroup;
 299:Middlewares/Third_Party/FreeRTOS/Source/event_groups.c **** EventBits_t uxReturn, uxControlBits = 0;
 300:Middlewares/Third_Party/FreeRTOS/Source/event_groups.c **** BaseType_t xWaitConditionMet, xAlreadyYielded;
 301:Middlewares/Third_Party/FreeRTOS/Source/event_groups.c **** BaseType_t xTimeoutOccurred = pdFALSE;
 302:Middlewares/Third_Party/FreeRTOS/Source/event_groups.c **** 
 303:Middlewares/Third_Party/FreeRTOS/Source/event_groups.c **** 	/* Check the user is not attempting to wait on the bits used by the kernel
 304:Middlewares/Third_Party/FreeRTOS/Source/event_groups.c **** 	itself, and that at least one bit is being requested. */
 305:Middlewares/Third_Party/FreeRTOS/Source/event_groups.c **** 	configASSERT( xEventGroup );
 306:Middlewares/Third_Party/FreeRTOS/Source/event_groups.c **** 	configASSERT( ( uxBitsToWaitFor & eventEVENT_BITS_CONTROL_BYTES ) == 0 );
 307:Middlewares/Third_Party/FreeRTOS/Source/event_groups.c **** 	configASSERT( uxBitsToWaitFor != 0 );
 308:Middlewares/Third_Party/FreeRTOS/Source/event_groups.c **** 	#if ( ( INCLUDE_xTaskGetSchedulerState == 1 ) || ( configUSE_TIMERS == 1 ) )
 309:Middlewares/Third_Party/FreeRTOS/Source/event_groups.c **** 	{
 310:Middlewares/Third_Party/FreeRTOS/Source/event_groups.c **** 		configASSERT( !( ( xTaskGetSchedulerState() == taskSCHEDULER_SUSPENDED ) && ( xTicksToWait != 0 )
 311:Middlewares/Third_Party/FreeRTOS/Source/event_groups.c **** 	}
 312:Middlewares/Third_Party/FreeRTOS/Source/event_groups.c **** 	#endif
 313:Middlewares/Third_Party/FreeRTOS/Source/event_groups.c **** 
 314:Middlewares/Third_Party/FreeRTOS/Source/event_groups.c **** 	vTaskSuspendAll();
 315:Middlewares/Third_Party/FreeRTOS/Source/event_groups.c **** 	{
 316:Middlewares/Third_Party/FreeRTOS/Source/event_groups.c **** 		const EventBits_t uxCurrentEventBits = pxEventBits->uxEventBits;
 317:Middlewares/Third_Party/FreeRTOS/Source/event_groups.c **** 
ARM GAS  /tmp/cc9c6oGu.s 			page 7


 318:Middlewares/Third_Party/FreeRTOS/Source/event_groups.c **** 		/* Check to see if the wait condition is already met or not. */
 319:Middlewares/Third_Party/FreeRTOS/Source/event_groups.c **** 		xWaitConditionMet = prvTestWaitCondition( uxCurrentEventBits, uxBitsToWaitFor, xWaitForAllBits );
 320:Middlewares/Third_Party/FreeRTOS/Source/event_groups.c **** 
 321:Middlewares/Third_Party/FreeRTOS/Source/event_groups.c **** 		if( xWaitConditionMet != pdFALSE )
 322:Middlewares/Third_Party/FreeRTOS/Source/event_groups.c **** 		{
 323:Middlewares/Third_Party/FreeRTOS/Source/event_groups.c **** 			/* The wait condition has already been met so there is no need to
 324:Middlewares/Third_Party/FreeRTOS/Source/event_groups.c **** 			block. */
 325:Middlewares/Third_Party/FreeRTOS/Source/event_groups.c **** 			uxReturn = uxCurrentEventBits;
 326:Middlewares/Third_Party/FreeRTOS/Source/event_groups.c **** 			xTicksToWait = ( TickType_t ) 0;
 327:Middlewares/Third_Party/FreeRTOS/Source/event_groups.c **** 
 328:Middlewares/Third_Party/FreeRTOS/Source/event_groups.c **** 			/* Clear the wait bits if requested to do so. */
 329:Middlewares/Third_Party/FreeRTOS/Source/event_groups.c **** 			if( xClearOnExit != pdFALSE )
 330:Middlewares/Third_Party/FreeRTOS/Source/event_groups.c **** 			{
 331:Middlewares/Third_Party/FreeRTOS/Source/event_groups.c **** 				pxEventBits->uxEventBits &= ~uxBitsToWaitFor;
 332:Middlewares/Third_Party/FreeRTOS/Source/event_groups.c **** 			}
 333:Middlewares/Third_Party/FreeRTOS/Source/event_groups.c **** 			else
 334:Middlewares/Third_Party/FreeRTOS/Source/event_groups.c **** 			{
 335:Middlewares/Third_Party/FreeRTOS/Source/event_groups.c **** 				mtCOVERAGE_TEST_MARKER();
 336:Middlewares/Third_Party/FreeRTOS/Source/event_groups.c **** 			}
 337:Middlewares/Third_Party/FreeRTOS/Source/event_groups.c **** 		}
 338:Middlewares/Third_Party/FreeRTOS/Source/event_groups.c **** 		else if( xTicksToWait == ( TickType_t ) 0 )
 339:Middlewares/Third_Party/FreeRTOS/Source/event_groups.c **** 		{
 340:Middlewares/Third_Party/FreeRTOS/Source/event_groups.c **** 			/* The wait condition has not been met, but no block time was
 341:Middlewares/Third_Party/FreeRTOS/Source/event_groups.c **** 			specified, so just return the current value. */
 342:Middlewares/Third_Party/FreeRTOS/Source/event_groups.c **** 			uxReturn = uxCurrentEventBits;
 343:Middlewares/Third_Party/FreeRTOS/Source/event_groups.c **** 			xTimeoutOccurred = pdTRUE;
 344:Middlewares/Third_Party/FreeRTOS/Source/event_groups.c **** 		}
 345:Middlewares/Third_Party/FreeRTOS/Source/event_groups.c **** 		else
 346:Middlewares/Third_Party/FreeRTOS/Source/event_groups.c **** 		{
 347:Middlewares/Third_Party/FreeRTOS/Source/event_groups.c **** 			/* The task is going to block to wait for its required bits to be
 348:Middlewares/Third_Party/FreeRTOS/Source/event_groups.c **** 			set.  uxControlBits are used to remember the specified behaviour of
 349:Middlewares/Third_Party/FreeRTOS/Source/event_groups.c **** 			this call to xEventGroupWaitBits() - for use when the event bits
 350:Middlewares/Third_Party/FreeRTOS/Source/event_groups.c **** 			unblock the task. */
 351:Middlewares/Third_Party/FreeRTOS/Source/event_groups.c **** 			if( xClearOnExit != pdFALSE )
 352:Middlewares/Third_Party/FreeRTOS/Source/event_groups.c **** 			{
 353:Middlewares/Third_Party/FreeRTOS/Source/event_groups.c **** 				uxControlBits |= eventCLEAR_EVENTS_ON_EXIT_BIT;
 354:Middlewares/Third_Party/FreeRTOS/Source/event_groups.c **** 			}
 355:Middlewares/Third_Party/FreeRTOS/Source/event_groups.c **** 			else
 356:Middlewares/Third_Party/FreeRTOS/Source/event_groups.c **** 			{
 357:Middlewares/Third_Party/FreeRTOS/Source/event_groups.c **** 				mtCOVERAGE_TEST_MARKER();
 358:Middlewares/Third_Party/FreeRTOS/Source/event_groups.c **** 			}
 359:Middlewares/Third_Party/FreeRTOS/Source/event_groups.c **** 
 360:Middlewares/Third_Party/FreeRTOS/Source/event_groups.c **** 			if( xWaitForAllBits != pdFALSE )
 361:Middlewares/Third_Party/FreeRTOS/Source/event_groups.c **** 			{
 362:Middlewares/Third_Party/FreeRTOS/Source/event_groups.c **** 				uxControlBits |= eventWAIT_FOR_ALL_BITS;
 363:Middlewares/Third_Party/FreeRTOS/Source/event_groups.c **** 			}
 364:Middlewares/Third_Party/FreeRTOS/Source/event_groups.c **** 			else
 365:Middlewares/Third_Party/FreeRTOS/Source/event_groups.c **** 			{
 366:Middlewares/Third_Party/FreeRTOS/Source/event_groups.c **** 				mtCOVERAGE_TEST_MARKER();
 367:Middlewares/Third_Party/FreeRTOS/Source/event_groups.c **** 			}
 368:Middlewares/Third_Party/FreeRTOS/Source/event_groups.c **** 
 369:Middlewares/Third_Party/FreeRTOS/Source/event_groups.c **** 			/* Store the bits that the calling task is waiting for in the
 370:Middlewares/Third_Party/FreeRTOS/Source/event_groups.c **** 			task's event list item so the kernel knows when a match is
 371:Middlewares/Third_Party/FreeRTOS/Source/event_groups.c **** 			found.  Then enter the blocked state. */
 372:Middlewares/Third_Party/FreeRTOS/Source/event_groups.c **** 			vTaskPlaceOnUnorderedEventList( &( pxEventBits->xTasksWaitingForBits ), ( uxBitsToWaitFor | uxCo
 373:Middlewares/Third_Party/FreeRTOS/Source/event_groups.c **** 
 374:Middlewares/Third_Party/FreeRTOS/Source/event_groups.c **** 			/* This is obsolete as it will get set after the task unblocks, but
ARM GAS  /tmp/cc9c6oGu.s 			page 8


 375:Middlewares/Third_Party/FreeRTOS/Source/event_groups.c **** 			some compilers mistakenly generate a warning about the variable
 376:Middlewares/Third_Party/FreeRTOS/Source/event_groups.c **** 			being returned without being set if it is not done. */
 377:Middlewares/Third_Party/FreeRTOS/Source/event_groups.c **** 			uxReturn = 0;
 378:Middlewares/Third_Party/FreeRTOS/Source/event_groups.c **** 
 379:Middlewares/Third_Party/FreeRTOS/Source/event_groups.c **** 			traceEVENT_GROUP_WAIT_BITS_BLOCK( xEventGroup, uxBitsToWaitFor );
 380:Middlewares/Third_Party/FreeRTOS/Source/event_groups.c **** 		}
 381:Middlewares/Third_Party/FreeRTOS/Source/event_groups.c **** 	}
 382:Middlewares/Third_Party/FreeRTOS/Source/event_groups.c **** 	xAlreadyYielded = xTaskResumeAll();
 383:Middlewares/Third_Party/FreeRTOS/Source/event_groups.c **** 
 384:Middlewares/Third_Party/FreeRTOS/Source/event_groups.c **** 	if( xTicksToWait != ( TickType_t ) 0 )
 385:Middlewares/Third_Party/FreeRTOS/Source/event_groups.c **** 	{
 386:Middlewares/Third_Party/FreeRTOS/Source/event_groups.c **** 		if( xAlreadyYielded == pdFALSE )
 387:Middlewares/Third_Party/FreeRTOS/Source/event_groups.c **** 		{
 388:Middlewares/Third_Party/FreeRTOS/Source/event_groups.c **** 			portYIELD_WITHIN_API();
 389:Middlewares/Third_Party/FreeRTOS/Source/event_groups.c **** 		}
 390:Middlewares/Third_Party/FreeRTOS/Source/event_groups.c **** 		else
 391:Middlewares/Third_Party/FreeRTOS/Source/event_groups.c **** 		{
 392:Middlewares/Third_Party/FreeRTOS/Source/event_groups.c **** 			mtCOVERAGE_TEST_MARKER();
 393:Middlewares/Third_Party/FreeRTOS/Source/event_groups.c **** 		}
 394:Middlewares/Third_Party/FreeRTOS/Source/event_groups.c **** 
 395:Middlewares/Third_Party/FreeRTOS/Source/event_groups.c **** 		/* The task blocked to wait for its required bits to be set - at this
 396:Middlewares/Third_Party/FreeRTOS/Source/event_groups.c **** 		point either the required bits were set or the block time expired.  If
 397:Middlewares/Third_Party/FreeRTOS/Source/event_groups.c **** 		the required bits were set they will have been stored in the task's
 398:Middlewares/Third_Party/FreeRTOS/Source/event_groups.c **** 		event list item, and they should now be retrieved then cleared. */
 399:Middlewares/Third_Party/FreeRTOS/Source/event_groups.c **** 		uxReturn = uxTaskResetEventItemValue();
 400:Middlewares/Third_Party/FreeRTOS/Source/event_groups.c **** 
 401:Middlewares/Third_Party/FreeRTOS/Source/event_groups.c **** 		if( ( uxReturn & eventUNBLOCKED_DUE_TO_BIT_SET ) == ( EventBits_t ) 0 )
 402:Middlewares/Third_Party/FreeRTOS/Source/event_groups.c **** 		{
 403:Middlewares/Third_Party/FreeRTOS/Source/event_groups.c **** 			taskENTER_CRITICAL();
 404:Middlewares/Third_Party/FreeRTOS/Source/event_groups.c **** 			{
 405:Middlewares/Third_Party/FreeRTOS/Source/event_groups.c **** 				/* The task timed out, just return the current event bit value. */
 406:Middlewares/Third_Party/FreeRTOS/Source/event_groups.c **** 				uxReturn = pxEventBits->uxEventBits;
 407:Middlewares/Third_Party/FreeRTOS/Source/event_groups.c **** 
 408:Middlewares/Third_Party/FreeRTOS/Source/event_groups.c **** 				/* It is possible that the event bits were updated between this
 409:Middlewares/Third_Party/FreeRTOS/Source/event_groups.c **** 				task leaving the Blocked state and running again. */
 410:Middlewares/Third_Party/FreeRTOS/Source/event_groups.c **** 				if( prvTestWaitCondition( uxReturn, uxBitsToWaitFor, xWaitForAllBits ) != pdFALSE )
 411:Middlewares/Third_Party/FreeRTOS/Source/event_groups.c **** 				{
 412:Middlewares/Third_Party/FreeRTOS/Source/event_groups.c **** 					if( xClearOnExit != pdFALSE )
 413:Middlewares/Third_Party/FreeRTOS/Source/event_groups.c **** 					{
 414:Middlewares/Third_Party/FreeRTOS/Source/event_groups.c **** 						pxEventBits->uxEventBits &= ~uxBitsToWaitFor;
 415:Middlewares/Third_Party/FreeRTOS/Source/event_groups.c **** 					}
 416:Middlewares/Third_Party/FreeRTOS/Source/event_groups.c **** 					else
 417:Middlewares/Third_Party/FreeRTOS/Source/event_groups.c **** 					{
 418:Middlewares/Third_Party/FreeRTOS/Source/event_groups.c **** 						mtCOVERAGE_TEST_MARKER();
 419:Middlewares/Third_Party/FreeRTOS/Source/event_groups.c **** 					}
 420:Middlewares/Third_Party/FreeRTOS/Source/event_groups.c **** 				}
 421:Middlewares/Third_Party/FreeRTOS/Source/event_groups.c **** 				else
 422:Middlewares/Third_Party/FreeRTOS/Source/event_groups.c **** 				{
 423:Middlewares/Third_Party/FreeRTOS/Source/event_groups.c **** 					mtCOVERAGE_TEST_MARKER();
 424:Middlewares/Third_Party/FreeRTOS/Source/event_groups.c **** 				}
 425:Middlewares/Third_Party/FreeRTOS/Source/event_groups.c **** 				xTimeoutOccurred = pdTRUE;
 426:Middlewares/Third_Party/FreeRTOS/Source/event_groups.c **** 			}
 427:Middlewares/Third_Party/FreeRTOS/Source/event_groups.c **** 			taskEXIT_CRITICAL();
 428:Middlewares/Third_Party/FreeRTOS/Source/event_groups.c **** 		}
 429:Middlewares/Third_Party/FreeRTOS/Source/event_groups.c **** 		else
 430:Middlewares/Third_Party/FreeRTOS/Source/event_groups.c **** 		{
 431:Middlewares/Third_Party/FreeRTOS/Source/event_groups.c **** 			/* The task unblocked because the bits were set. */
ARM GAS  /tmp/cc9c6oGu.s 			page 9


 432:Middlewares/Third_Party/FreeRTOS/Source/event_groups.c **** 		}
 433:Middlewares/Third_Party/FreeRTOS/Source/event_groups.c **** 
 434:Middlewares/Third_Party/FreeRTOS/Source/event_groups.c **** 		/* The task blocked so control bits may have been set. */
 435:Middlewares/Third_Party/FreeRTOS/Source/event_groups.c **** 		uxReturn &= ~eventEVENT_BITS_CONTROL_BYTES;
 436:Middlewares/Third_Party/FreeRTOS/Source/event_groups.c **** 	}
 437:Middlewares/Third_Party/FreeRTOS/Source/event_groups.c **** 	traceEVENT_GROUP_WAIT_BITS_END( xEventGroup, uxBitsToWaitFor, xTimeoutOccurred );
 438:Middlewares/Third_Party/FreeRTOS/Source/event_groups.c **** 
 439:Middlewares/Third_Party/FreeRTOS/Source/event_groups.c **** 	/* Prevent compiler warnings when trace macros are not used. */
 440:Middlewares/Third_Party/FreeRTOS/Source/event_groups.c **** 	( void ) xTimeoutOccurred;
 441:Middlewares/Third_Party/FreeRTOS/Source/event_groups.c **** 
 442:Middlewares/Third_Party/FreeRTOS/Source/event_groups.c **** 	return uxReturn;
 443:Middlewares/Third_Party/FreeRTOS/Source/event_groups.c **** }
 444:Middlewares/Third_Party/FreeRTOS/Source/event_groups.c **** /*-----------------------------------------------------------*/
 445:Middlewares/Third_Party/FreeRTOS/Source/event_groups.c **** 
 446:Middlewares/Third_Party/FreeRTOS/Source/event_groups.c **** EventBits_t xEventGroupClearBits( EventGroupHandle_t xEventGroup, const EventBits_t uxBitsToClear )
 447:Middlewares/Third_Party/FreeRTOS/Source/event_groups.c **** {
 448:Middlewares/Third_Party/FreeRTOS/Source/event_groups.c **** EventGroup_t *pxEventBits = ( EventGroup_t * ) xEventGroup;
 449:Middlewares/Third_Party/FreeRTOS/Source/event_groups.c **** EventBits_t uxReturn;
 450:Middlewares/Third_Party/FreeRTOS/Source/event_groups.c **** 
 451:Middlewares/Third_Party/FreeRTOS/Source/event_groups.c **** 	/* Check the user is not attempting to clear the bits used by the kernel
 452:Middlewares/Third_Party/FreeRTOS/Source/event_groups.c **** 	itself. */
 453:Middlewares/Third_Party/FreeRTOS/Source/event_groups.c **** 	configASSERT( xEventGroup );
 454:Middlewares/Third_Party/FreeRTOS/Source/event_groups.c **** 	configASSERT( ( uxBitsToClear & eventEVENT_BITS_CONTROL_BYTES ) == 0 );
 455:Middlewares/Third_Party/FreeRTOS/Source/event_groups.c **** 
 456:Middlewares/Third_Party/FreeRTOS/Source/event_groups.c **** 	taskENTER_CRITICAL();
 457:Middlewares/Third_Party/FreeRTOS/Source/event_groups.c **** 	{
 458:Middlewares/Third_Party/FreeRTOS/Source/event_groups.c **** 		traceEVENT_GROUP_CLEAR_BITS( xEventGroup, uxBitsToClear );
 459:Middlewares/Third_Party/FreeRTOS/Source/event_groups.c **** 
 460:Middlewares/Third_Party/FreeRTOS/Source/event_groups.c **** 		/* The value returned is the event group value prior to the bits being
 461:Middlewares/Third_Party/FreeRTOS/Source/event_groups.c **** 		cleared. */
 462:Middlewares/Third_Party/FreeRTOS/Source/event_groups.c **** 		uxReturn = pxEventBits->uxEventBits;
 463:Middlewares/Third_Party/FreeRTOS/Source/event_groups.c **** 
 464:Middlewares/Third_Party/FreeRTOS/Source/event_groups.c **** 		/* Clear the bits. */
 465:Middlewares/Third_Party/FreeRTOS/Source/event_groups.c **** 		pxEventBits->uxEventBits &= ~uxBitsToClear;
 466:Middlewares/Third_Party/FreeRTOS/Source/event_groups.c **** 	}
 467:Middlewares/Third_Party/FreeRTOS/Source/event_groups.c **** 	taskEXIT_CRITICAL();
 468:Middlewares/Third_Party/FreeRTOS/Source/event_groups.c **** 
 469:Middlewares/Third_Party/FreeRTOS/Source/event_groups.c **** 	return uxReturn;
 470:Middlewares/Third_Party/FreeRTOS/Source/event_groups.c **** }
 471:Middlewares/Third_Party/FreeRTOS/Source/event_groups.c **** /*-----------------------------------------------------------*/
 472:Middlewares/Third_Party/FreeRTOS/Source/event_groups.c **** 
 473:Middlewares/Third_Party/FreeRTOS/Source/event_groups.c **** #if ( ( configUSE_TRACE_FACILITY == 1 ) && ( INCLUDE_xTimerPendFunctionCall == 1 ) && ( configUSE_T
 474:Middlewares/Third_Party/FreeRTOS/Source/event_groups.c **** 
 475:Middlewares/Third_Party/FreeRTOS/Source/event_groups.c **** 	BaseType_t xEventGroupClearBitsFromISR( EventGroupHandle_t xEventGroup, const EventBits_t uxBitsTo
 476:Middlewares/Third_Party/FreeRTOS/Source/event_groups.c **** 	{
 477:Middlewares/Third_Party/FreeRTOS/Source/event_groups.c **** 		BaseType_t xReturn;
 478:Middlewares/Third_Party/FreeRTOS/Source/event_groups.c **** 
 479:Middlewares/Third_Party/FreeRTOS/Source/event_groups.c **** 		traceEVENT_GROUP_CLEAR_BITS_FROM_ISR( xEventGroup, uxBitsToClear );
 480:Middlewares/Third_Party/FreeRTOS/Source/event_groups.c **** 		xReturn = xTimerPendFunctionCallFromISR( vEventGroupClearBitsCallback, ( void * ) xEventGroup, ( 
 481:Middlewares/Third_Party/FreeRTOS/Source/event_groups.c **** 
 482:Middlewares/Third_Party/FreeRTOS/Source/event_groups.c **** 		return xReturn;
 483:Middlewares/Third_Party/FreeRTOS/Source/event_groups.c **** 	}
 484:Middlewares/Third_Party/FreeRTOS/Source/event_groups.c **** 
 485:Middlewares/Third_Party/FreeRTOS/Source/event_groups.c **** #endif
 486:Middlewares/Third_Party/FreeRTOS/Source/event_groups.c **** /*-----------------------------------------------------------*/
 487:Middlewares/Third_Party/FreeRTOS/Source/event_groups.c **** 
 488:Middlewares/Third_Party/FreeRTOS/Source/event_groups.c **** EventBits_t xEventGroupGetBitsFromISR( EventGroupHandle_t xEventGroup )
ARM GAS  /tmp/cc9c6oGu.s 			page 10


 489:Middlewares/Third_Party/FreeRTOS/Source/event_groups.c **** {
 490:Middlewares/Third_Party/FreeRTOS/Source/event_groups.c **** UBaseType_t uxSavedInterruptStatus;
 491:Middlewares/Third_Party/FreeRTOS/Source/event_groups.c **** EventGroup_t *pxEventBits = ( EventGroup_t * ) xEventGroup;
 492:Middlewares/Third_Party/FreeRTOS/Source/event_groups.c **** EventBits_t uxReturn;
 493:Middlewares/Third_Party/FreeRTOS/Source/event_groups.c **** 
 494:Middlewares/Third_Party/FreeRTOS/Source/event_groups.c **** 	uxSavedInterruptStatus = portSET_INTERRUPT_MASK_FROM_ISR();
 495:Middlewares/Third_Party/FreeRTOS/Source/event_groups.c **** 	{
 496:Middlewares/Third_Party/FreeRTOS/Source/event_groups.c **** 		uxReturn = pxEventBits->uxEventBits;
 497:Middlewares/Third_Party/FreeRTOS/Source/event_groups.c **** 	}
 498:Middlewares/Third_Party/FreeRTOS/Source/event_groups.c **** 	portCLEAR_INTERRUPT_MASK_FROM_ISR( uxSavedInterruptStatus );
 499:Middlewares/Third_Party/FreeRTOS/Source/event_groups.c **** 
 500:Middlewares/Third_Party/FreeRTOS/Source/event_groups.c **** 	return uxReturn;
 501:Middlewares/Third_Party/FreeRTOS/Source/event_groups.c **** }
 502:Middlewares/Third_Party/FreeRTOS/Source/event_groups.c **** /*-----------------------------------------------------------*/
 503:Middlewares/Third_Party/FreeRTOS/Source/event_groups.c **** 
 504:Middlewares/Third_Party/FreeRTOS/Source/event_groups.c **** EventBits_t xEventGroupSetBits( EventGroupHandle_t xEventGroup, const EventBits_t uxBitsToSet )
 505:Middlewares/Third_Party/FreeRTOS/Source/event_groups.c **** {
 506:Middlewares/Third_Party/FreeRTOS/Source/event_groups.c **** ListItem_t *pxListItem, *pxNext;
 507:Middlewares/Third_Party/FreeRTOS/Source/event_groups.c **** ListItem_t const *pxListEnd;
 508:Middlewares/Third_Party/FreeRTOS/Source/event_groups.c **** List_t *pxList;
 509:Middlewares/Third_Party/FreeRTOS/Source/event_groups.c **** EventBits_t uxBitsToClear = 0, uxBitsWaitedFor, uxControlBits;
 510:Middlewares/Third_Party/FreeRTOS/Source/event_groups.c **** EventGroup_t *pxEventBits = ( EventGroup_t * ) xEventGroup;
 511:Middlewares/Third_Party/FreeRTOS/Source/event_groups.c **** BaseType_t xMatchFound = pdFALSE;
 512:Middlewares/Third_Party/FreeRTOS/Source/event_groups.c **** 
 513:Middlewares/Third_Party/FreeRTOS/Source/event_groups.c **** 	/* Check the user is not attempting to set the bits used by the kernel
 514:Middlewares/Third_Party/FreeRTOS/Source/event_groups.c **** 	itself. */
 515:Middlewares/Third_Party/FreeRTOS/Source/event_groups.c **** 	configASSERT( xEventGroup );
 516:Middlewares/Third_Party/FreeRTOS/Source/event_groups.c **** 	configASSERT( ( uxBitsToSet & eventEVENT_BITS_CONTROL_BYTES ) == 0 );
 517:Middlewares/Third_Party/FreeRTOS/Source/event_groups.c **** 
 518:Middlewares/Third_Party/FreeRTOS/Source/event_groups.c **** 	pxList = &( pxEventBits->xTasksWaitingForBits );
 519:Middlewares/Third_Party/FreeRTOS/Source/event_groups.c **** 	pxListEnd = listGET_END_MARKER( pxList ); /*lint !e826 !e740 The mini list structure is used as th
 520:Middlewares/Third_Party/FreeRTOS/Source/event_groups.c **** 	vTaskSuspendAll();
 521:Middlewares/Third_Party/FreeRTOS/Source/event_groups.c **** 	{
 522:Middlewares/Third_Party/FreeRTOS/Source/event_groups.c **** 		traceEVENT_GROUP_SET_BITS( xEventGroup, uxBitsToSet );
 523:Middlewares/Third_Party/FreeRTOS/Source/event_groups.c **** 
 524:Middlewares/Third_Party/FreeRTOS/Source/event_groups.c **** 		pxListItem = listGET_HEAD_ENTRY( pxList );
 525:Middlewares/Third_Party/FreeRTOS/Source/event_groups.c **** 
 526:Middlewares/Third_Party/FreeRTOS/Source/event_groups.c **** 		/* Set the bits. */
 527:Middlewares/Third_Party/FreeRTOS/Source/event_groups.c **** 		pxEventBits->uxEventBits |= uxBitsToSet;
 528:Middlewares/Third_Party/FreeRTOS/Source/event_groups.c **** 
 529:Middlewares/Third_Party/FreeRTOS/Source/event_groups.c **** 		/* See if the new bit value should unblock any tasks. */
 530:Middlewares/Third_Party/FreeRTOS/Source/event_groups.c **** 		while( pxListItem != pxListEnd )
 531:Middlewares/Third_Party/FreeRTOS/Source/event_groups.c **** 		{
 532:Middlewares/Third_Party/FreeRTOS/Source/event_groups.c **** 			pxNext = listGET_NEXT( pxListItem );
 533:Middlewares/Third_Party/FreeRTOS/Source/event_groups.c **** 			uxBitsWaitedFor = listGET_LIST_ITEM_VALUE( pxListItem );
 534:Middlewares/Third_Party/FreeRTOS/Source/event_groups.c **** 			xMatchFound = pdFALSE;
 535:Middlewares/Third_Party/FreeRTOS/Source/event_groups.c **** 
 536:Middlewares/Third_Party/FreeRTOS/Source/event_groups.c **** 			/* Split the bits waited for from the control bits. */
 537:Middlewares/Third_Party/FreeRTOS/Source/event_groups.c **** 			uxControlBits = uxBitsWaitedFor & eventEVENT_BITS_CONTROL_BYTES;
 538:Middlewares/Third_Party/FreeRTOS/Source/event_groups.c **** 			uxBitsWaitedFor &= ~eventEVENT_BITS_CONTROL_BYTES;
 539:Middlewares/Third_Party/FreeRTOS/Source/event_groups.c **** 
 540:Middlewares/Third_Party/FreeRTOS/Source/event_groups.c **** 			if( ( uxControlBits & eventWAIT_FOR_ALL_BITS ) == ( EventBits_t ) 0 )
 541:Middlewares/Third_Party/FreeRTOS/Source/event_groups.c **** 			{
 542:Middlewares/Third_Party/FreeRTOS/Source/event_groups.c **** 				/* Just looking for single bit being set. */
 543:Middlewares/Third_Party/FreeRTOS/Source/event_groups.c **** 				if( ( uxBitsWaitedFor & pxEventBits->uxEventBits ) != ( EventBits_t ) 0 )
 544:Middlewares/Third_Party/FreeRTOS/Source/event_groups.c **** 				{
 545:Middlewares/Third_Party/FreeRTOS/Source/event_groups.c **** 					xMatchFound = pdTRUE;
ARM GAS  /tmp/cc9c6oGu.s 			page 11


 546:Middlewares/Third_Party/FreeRTOS/Source/event_groups.c **** 				}
 547:Middlewares/Third_Party/FreeRTOS/Source/event_groups.c **** 				else
 548:Middlewares/Third_Party/FreeRTOS/Source/event_groups.c **** 				{
 549:Middlewares/Third_Party/FreeRTOS/Source/event_groups.c **** 					mtCOVERAGE_TEST_MARKER();
 550:Middlewares/Third_Party/FreeRTOS/Source/event_groups.c **** 				}
 551:Middlewares/Third_Party/FreeRTOS/Source/event_groups.c **** 			}
 552:Middlewares/Third_Party/FreeRTOS/Source/event_groups.c **** 			else if( ( uxBitsWaitedFor & pxEventBits->uxEventBits ) == uxBitsWaitedFor )
 553:Middlewares/Third_Party/FreeRTOS/Source/event_groups.c **** 			{
 554:Middlewares/Third_Party/FreeRTOS/Source/event_groups.c **** 				/* All bits are set. */
 555:Middlewares/Third_Party/FreeRTOS/Source/event_groups.c **** 				xMatchFound = pdTRUE;
 556:Middlewares/Third_Party/FreeRTOS/Source/event_groups.c **** 			}
 557:Middlewares/Third_Party/FreeRTOS/Source/event_groups.c **** 			else
 558:Middlewares/Third_Party/FreeRTOS/Source/event_groups.c **** 			{
 559:Middlewares/Third_Party/FreeRTOS/Source/event_groups.c **** 				/* Need all bits to be set, but not all the bits were set. */
 560:Middlewares/Third_Party/FreeRTOS/Source/event_groups.c **** 			}
 561:Middlewares/Third_Party/FreeRTOS/Source/event_groups.c **** 
 562:Middlewares/Third_Party/FreeRTOS/Source/event_groups.c **** 			if( xMatchFound != pdFALSE )
 563:Middlewares/Third_Party/FreeRTOS/Source/event_groups.c **** 			{
 564:Middlewares/Third_Party/FreeRTOS/Source/event_groups.c **** 				/* The bits match.  Should the bits be cleared on exit? */
 565:Middlewares/Third_Party/FreeRTOS/Source/event_groups.c **** 				if( ( uxControlBits & eventCLEAR_EVENTS_ON_EXIT_BIT ) != ( EventBits_t ) 0 )
 566:Middlewares/Third_Party/FreeRTOS/Source/event_groups.c **** 				{
 567:Middlewares/Third_Party/FreeRTOS/Source/event_groups.c **** 					uxBitsToClear |= uxBitsWaitedFor;
 568:Middlewares/Third_Party/FreeRTOS/Source/event_groups.c **** 				}
 569:Middlewares/Third_Party/FreeRTOS/Source/event_groups.c **** 				else
 570:Middlewares/Third_Party/FreeRTOS/Source/event_groups.c **** 				{
 571:Middlewares/Third_Party/FreeRTOS/Source/event_groups.c **** 					mtCOVERAGE_TEST_MARKER();
 572:Middlewares/Third_Party/FreeRTOS/Source/event_groups.c **** 				}
 573:Middlewares/Third_Party/FreeRTOS/Source/event_groups.c **** 
 574:Middlewares/Third_Party/FreeRTOS/Source/event_groups.c **** 				/* Store the actual event flag value in the task's event list
 575:Middlewares/Third_Party/FreeRTOS/Source/event_groups.c **** 				item before removing the task from the event list.  The
 576:Middlewares/Third_Party/FreeRTOS/Source/event_groups.c **** 				eventUNBLOCKED_DUE_TO_BIT_SET bit is set so the task knows
 577:Middlewares/Third_Party/FreeRTOS/Source/event_groups.c **** 				that is was unblocked due to its required bits matching, rather
 578:Middlewares/Third_Party/FreeRTOS/Source/event_groups.c **** 				than because it timed out. */
 579:Middlewares/Third_Party/FreeRTOS/Source/event_groups.c **** 				vTaskRemoveFromUnorderedEventList( pxListItem, pxEventBits->uxEventBits | eventUNBLOCKED_DUE_TO
 580:Middlewares/Third_Party/FreeRTOS/Source/event_groups.c **** 			}
 581:Middlewares/Third_Party/FreeRTOS/Source/event_groups.c **** 
 582:Middlewares/Third_Party/FreeRTOS/Source/event_groups.c **** 			/* Move onto the next list item.  Note pxListItem->pxNext is not
 583:Middlewares/Third_Party/FreeRTOS/Source/event_groups.c **** 			used here as the list item may have been removed from the event list
 584:Middlewares/Third_Party/FreeRTOS/Source/event_groups.c **** 			and inserted into the ready/pending reading list. */
 585:Middlewares/Third_Party/FreeRTOS/Source/event_groups.c **** 			pxListItem = pxNext;
 586:Middlewares/Third_Party/FreeRTOS/Source/event_groups.c **** 		}
 587:Middlewares/Third_Party/FreeRTOS/Source/event_groups.c **** 
 588:Middlewares/Third_Party/FreeRTOS/Source/event_groups.c **** 		/* Clear any bits that matched when the eventCLEAR_EVENTS_ON_EXIT_BIT
 589:Middlewares/Third_Party/FreeRTOS/Source/event_groups.c **** 		bit was set in the control word. */
 590:Middlewares/Third_Party/FreeRTOS/Source/event_groups.c **** 		pxEventBits->uxEventBits &= ~uxBitsToClear;
 591:Middlewares/Third_Party/FreeRTOS/Source/event_groups.c **** 	}
 592:Middlewares/Third_Party/FreeRTOS/Source/event_groups.c **** 	( void ) xTaskResumeAll();
 593:Middlewares/Third_Party/FreeRTOS/Source/event_groups.c **** 
 594:Middlewares/Third_Party/FreeRTOS/Source/event_groups.c **** 	return pxEventBits->uxEventBits;
 595:Middlewares/Third_Party/FreeRTOS/Source/event_groups.c **** }
 596:Middlewares/Third_Party/FreeRTOS/Source/event_groups.c **** /*-----------------------------------------------------------*/
 597:Middlewares/Third_Party/FreeRTOS/Source/event_groups.c **** 
 598:Middlewares/Third_Party/FreeRTOS/Source/event_groups.c **** void vEventGroupDelete( EventGroupHandle_t xEventGroup )
 599:Middlewares/Third_Party/FreeRTOS/Source/event_groups.c **** {
 600:Middlewares/Third_Party/FreeRTOS/Source/event_groups.c **** EventGroup_t *pxEventBits = ( EventGroup_t * ) xEventGroup;
 601:Middlewares/Third_Party/FreeRTOS/Source/event_groups.c **** const List_t *pxTasksWaitingForBits = &( pxEventBits->xTasksWaitingForBits );
 602:Middlewares/Third_Party/FreeRTOS/Source/event_groups.c **** 
ARM GAS  /tmp/cc9c6oGu.s 			page 12


 603:Middlewares/Third_Party/FreeRTOS/Source/event_groups.c **** 	vTaskSuspendAll();
 604:Middlewares/Third_Party/FreeRTOS/Source/event_groups.c **** 	{
 605:Middlewares/Third_Party/FreeRTOS/Source/event_groups.c **** 		traceEVENT_GROUP_DELETE( xEventGroup );
 606:Middlewares/Third_Party/FreeRTOS/Source/event_groups.c **** 
 607:Middlewares/Third_Party/FreeRTOS/Source/event_groups.c **** 		while( listCURRENT_LIST_LENGTH( pxTasksWaitingForBits ) > ( UBaseType_t ) 0 )
 608:Middlewares/Third_Party/FreeRTOS/Source/event_groups.c **** 		{
 609:Middlewares/Third_Party/FreeRTOS/Source/event_groups.c **** 			/* Unblock the task, returning 0 as the event list is being deleted
 610:Middlewares/Third_Party/FreeRTOS/Source/event_groups.c **** 			and cannot therefore have any bits set. */
 611:Middlewares/Third_Party/FreeRTOS/Source/event_groups.c **** 			configASSERT( pxTasksWaitingForBits->xListEnd.pxNext != ( const ListItem_t * ) &( pxTasksWaiting
 612:Middlewares/Third_Party/FreeRTOS/Source/event_groups.c **** 			vTaskRemoveFromUnorderedEventList( pxTasksWaitingForBits->xListEnd.pxNext, eventUNBLOCKED_DUE_TO
 613:Middlewares/Third_Party/FreeRTOS/Source/event_groups.c **** 		}
 614:Middlewares/Third_Party/FreeRTOS/Source/event_groups.c **** 
 615:Middlewares/Third_Party/FreeRTOS/Source/event_groups.c **** 		#if( ( configSUPPORT_DYNAMIC_ALLOCATION == 1 ) && ( configSUPPORT_STATIC_ALLOCATION == 0 ) )
 616:Middlewares/Third_Party/FreeRTOS/Source/event_groups.c **** 		{
 617:Middlewares/Third_Party/FreeRTOS/Source/event_groups.c **** 			/* The event group can only have been allocated dynamically - free
 618:Middlewares/Third_Party/FreeRTOS/Source/event_groups.c **** 			it again. */
 619:Middlewares/Third_Party/FreeRTOS/Source/event_groups.c **** 			vPortFree( pxEventBits );
 620:Middlewares/Third_Party/FreeRTOS/Source/event_groups.c **** 		}
 621:Middlewares/Third_Party/FreeRTOS/Source/event_groups.c **** 		#elif( ( configSUPPORT_DYNAMIC_ALLOCATION == 1 ) && ( configSUPPORT_STATIC_ALLOCATION == 1 ) )
 622:Middlewares/Third_Party/FreeRTOS/Source/event_groups.c **** 		{
 623:Middlewares/Third_Party/FreeRTOS/Source/event_groups.c **** 			/* The event group could have been allocated statically or
 624:Middlewares/Third_Party/FreeRTOS/Source/event_groups.c **** 			dynamically, so check before attempting to free the memory. */
 625:Middlewares/Third_Party/FreeRTOS/Source/event_groups.c **** 			if( pxEventBits->ucStaticallyAllocated == ( uint8_t ) pdFALSE )
 626:Middlewares/Third_Party/FreeRTOS/Source/event_groups.c **** 			{
 627:Middlewares/Third_Party/FreeRTOS/Source/event_groups.c **** 				vPortFree( pxEventBits );
 628:Middlewares/Third_Party/FreeRTOS/Source/event_groups.c **** 			}
 629:Middlewares/Third_Party/FreeRTOS/Source/event_groups.c **** 			else
 630:Middlewares/Third_Party/FreeRTOS/Source/event_groups.c **** 			{
 631:Middlewares/Third_Party/FreeRTOS/Source/event_groups.c **** 				mtCOVERAGE_TEST_MARKER();
 632:Middlewares/Third_Party/FreeRTOS/Source/event_groups.c **** 			}
 633:Middlewares/Third_Party/FreeRTOS/Source/event_groups.c **** 		}
 634:Middlewares/Third_Party/FreeRTOS/Source/event_groups.c **** 		#endif /* configSUPPORT_DYNAMIC_ALLOCATION */
 635:Middlewares/Third_Party/FreeRTOS/Source/event_groups.c **** 	}
 636:Middlewares/Third_Party/FreeRTOS/Source/event_groups.c **** 	( void ) xTaskResumeAll();
 637:Middlewares/Third_Party/FreeRTOS/Source/event_groups.c **** }
 638:Middlewares/Third_Party/FreeRTOS/Source/event_groups.c **** /*-----------------------------------------------------------*/
 639:Middlewares/Third_Party/FreeRTOS/Source/event_groups.c **** 
 640:Middlewares/Third_Party/FreeRTOS/Source/event_groups.c **** /* For internal use only - execute a 'set bits' command that was pended from
 641:Middlewares/Third_Party/FreeRTOS/Source/event_groups.c **** an interrupt. */
 642:Middlewares/Third_Party/FreeRTOS/Source/event_groups.c **** void vEventGroupSetBitsCallback( void *pvEventGroup, const uint32_t ulBitsToSet )
 643:Middlewares/Third_Party/FreeRTOS/Source/event_groups.c **** {
 644:Middlewares/Third_Party/FreeRTOS/Source/event_groups.c **** 	( void ) xEventGroupSetBits( pvEventGroup, ( EventBits_t ) ulBitsToSet );
 645:Middlewares/Third_Party/FreeRTOS/Source/event_groups.c **** }
 646:Middlewares/Third_Party/FreeRTOS/Source/event_groups.c **** /*-----------------------------------------------------------*/
 647:Middlewares/Third_Party/FreeRTOS/Source/event_groups.c **** 
 648:Middlewares/Third_Party/FreeRTOS/Source/event_groups.c **** /* For internal use only - execute a 'clear bits' command that was pended from
 649:Middlewares/Third_Party/FreeRTOS/Source/event_groups.c **** an interrupt. */
 650:Middlewares/Third_Party/FreeRTOS/Source/event_groups.c **** void vEventGroupClearBitsCallback( void *pvEventGroup, const uint32_t ulBitsToClear )
 651:Middlewares/Third_Party/FreeRTOS/Source/event_groups.c **** {
 652:Middlewares/Third_Party/FreeRTOS/Source/event_groups.c **** 	( void ) xEventGroupClearBits( pvEventGroup, ( EventBits_t ) ulBitsToClear );
 653:Middlewares/Third_Party/FreeRTOS/Source/event_groups.c **** }
 654:Middlewares/Third_Party/FreeRTOS/Source/event_groups.c **** /*-----------------------------------------------------------*/
 655:Middlewares/Third_Party/FreeRTOS/Source/event_groups.c **** 
 656:Middlewares/Third_Party/FreeRTOS/Source/event_groups.c **** static BaseType_t prvTestWaitCondition( const EventBits_t uxCurrentEventBits, const EventBits_t uxB
 657:Middlewares/Third_Party/FreeRTOS/Source/event_groups.c **** {
  27              		.loc 1 657 1 view -0
  28              		.cfi_startproc
ARM GAS  /tmp/cc9c6oGu.s 			page 13


  29              		@ args = 0, pretend = 0, frame = 0
  30              		@ frame_needed = 0, uses_anonymous_args = 0
  31              		@ link register save eliminated.
 658:Middlewares/Third_Party/FreeRTOS/Source/event_groups.c **** BaseType_t xWaitConditionMet = pdFALSE;
  32              		.loc 1 658 1 view .LVU1
 659:Middlewares/Third_Party/FreeRTOS/Source/event_groups.c **** 
 660:Middlewares/Third_Party/FreeRTOS/Source/event_groups.c **** 	if( xWaitForAllBits == pdFALSE )
  33              		.loc 1 660 2 view .LVU2
  34              		.loc 1 660 4 is_stmt 0 view .LVU3
  35 0000 1AB9     		cbnz	r2, .L2
 661:Middlewares/Third_Party/FreeRTOS/Source/event_groups.c **** 	{
 662:Middlewares/Third_Party/FreeRTOS/Source/event_groups.c **** 		/* Task only has to wait for one bit within uxBitsToWaitFor to be
 663:Middlewares/Third_Party/FreeRTOS/Source/event_groups.c **** 		set.  Is one already set? */
 664:Middlewares/Third_Party/FreeRTOS/Source/event_groups.c **** 		if( ( uxCurrentEventBits & uxBitsToWaitFor ) != ( EventBits_t ) 0 )
  36              		.loc 1 664 3 is_stmt 1 view .LVU4
  37              		.loc 1 664 5 is_stmt 0 view .LVU5
  38 0002 0842     		tst	r0, r1
  39 0004 05D1     		bne	.L4
 658:Middlewares/Third_Party/FreeRTOS/Source/event_groups.c **** 
  40              		.loc 1 658 12 view .LVU6
  41 0006 1046     		mov	r0, r2
  42              	.LVL1:
 658:Middlewares/Third_Party/FreeRTOS/Source/event_groups.c **** 
  43              		.loc 1 658 12 view .LVU7
  44 0008 7047     		bx	lr
  45              	.LVL2:
  46              	.L2:
 665:Middlewares/Third_Party/FreeRTOS/Source/event_groups.c **** 		{
 666:Middlewares/Third_Party/FreeRTOS/Source/event_groups.c **** 			xWaitConditionMet = pdTRUE;
 667:Middlewares/Third_Party/FreeRTOS/Source/event_groups.c **** 		}
 668:Middlewares/Third_Party/FreeRTOS/Source/event_groups.c **** 		else
 669:Middlewares/Third_Party/FreeRTOS/Source/event_groups.c **** 		{
 670:Middlewares/Third_Party/FreeRTOS/Source/event_groups.c **** 			mtCOVERAGE_TEST_MARKER();
 671:Middlewares/Third_Party/FreeRTOS/Source/event_groups.c **** 		}
 672:Middlewares/Third_Party/FreeRTOS/Source/event_groups.c **** 	}
 673:Middlewares/Third_Party/FreeRTOS/Source/event_groups.c **** 	else
 674:Middlewares/Third_Party/FreeRTOS/Source/event_groups.c **** 	{
 675:Middlewares/Third_Party/FreeRTOS/Source/event_groups.c **** 		/* Task has to wait for all the bits in uxBitsToWaitFor to be set.
 676:Middlewares/Third_Party/FreeRTOS/Source/event_groups.c **** 		Are they set already? */
 677:Middlewares/Third_Party/FreeRTOS/Source/event_groups.c **** 		if( ( uxCurrentEventBits & uxBitsToWaitFor ) == uxBitsToWaitFor )
  47              		.loc 1 677 3 is_stmt 1 view .LVU8
  48              		.loc 1 677 5 is_stmt 0 view .LVU9
  49 000a 8143     		bics	r1, r1, r0
  50              	.LVL3:
  51              		.loc 1 677 5 view .LVU10
  52 000c 03D0     		beq	.L5
 658:Middlewares/Third_Party/FreeRTOS/Source/event_groups.c **** 
  53              		.loc 1 658 12 view .LVU11
  54 000e 0020     		movs	r0, #0
  55              	.LVL4:
 658:Middlewares/Third_Party/FreeRTOS/Source/event_groups.c **** 
  56              		.loc 1 658 12 view .LVU12
  57 0010 7047     		bx	lr
  58              	.LVL5:
  59              	.L4:
 666:Middlewares/Third_Party/FreeRTOS/Source/event_groups.c **** 		}
  60              		.loc 1 666 22 view .LVU13
ARM GAS  /tmp/cc9c6oGu.s 			page 14


  61 0012 0120     		movs	r0, #1
  62              	.LVL6:
 666:Middlewares/Third_Party/FreeRTOS/Source/event_groups.c **** 		}
  63              		.loc 1 666 22 view .LVU14
  64 0014 7047     		bx	lr
  65              	.LVL7:
  66              	.L5:
 678:Middlewares/Third_Party/FreeRTOS/Source/event_groups.c **** 		{
 679:Middlewares/Third_Party/FreeRTOS/Source/event_groups.c **** 			xWaitConditionMet = pdTRUE;
  67              		.loc 1 679 22 view .LVU15
  68 0016 0120     		movs	r0, #1
  69              	.LVL8:
 680:Middlewares/Third_Party/FreeRTOS/Source/event_groups.c **** 		}
 681:Middlewares/Third_Party/FreeRTOS/Source/event_groups.c **** 		else
 682:Middlewares/Third_Party/FreeRTOS/Source/event_groups.c **** 		{
 683:Middlewares/Third_Party/FreeRTOS/Source/event_groups.c **** 			mtCOVERAGE_TEST_MARKER();
  70              		.loc 1 683 28 is_stmt 1 view .LVU16
 684:Middlewares/Third_Party/FreeRTOS/Source/event_groups.c **** 		}
 685:Middlewares/Third_Party/FreeRTOS/Source/event_groups.c **** 	}
 686:Middlewares/Third_Party/FreeRTOS/Source/event_groups.c **** 
 687:Middlewares/Third_Party/FreeRTOS/Source/event_groups.c **** 	return xWaitConditionMet;
  71              		.loc 1 687 2 view .LVU17
 688:Middlewares/Third_Party/FreeRTOS/Source/event_groups.c **** }
  72              		.loc 1 688 1 is_stmt 0 view .LVU18
  73 0018 7047     		bx	lr
  74              		.cfi_endproc
  75              	.LFE15:
  77              		.section	.text.xEventGroupCreateStatic,"ax",%progbits
  78              		.align	1
  79              		.global	xEventGroupCreateStatic
  80              		.syntax unified
  81              		.thumb
  82              		.thumb_func
  84              	xEventGroupCreateStatic:
  85              	.LVL9:
  86              	.LFB4:
  94:Middlewares/Third_Party/FreeRTOS/Source/event_groups.c **** 	EventGroup_t *pxEventBits;
  87              		.loc 1 94 2 is_stmt 1 view -0
  88              		.cfi_startproc
  89              		@ args = 0, pretend = 0, frame = 8
  90              		@ frame_needed = 0, uses_anonymous_args = 0
  95:Middlewares/Third_Party/FreeRTOS/Source/event_groups.c **** 
  91              		.loc 1 95 2 view .LVU20
  98:Middlewares/Third_Party/FreeRTOS/Source/event_groups.c **** 
  92              		.loc 1 98 3 view .LVU21
  93 0000 80B1     		cbz	r0, .L13
  94:Middlewares/Third_Party/FreeRTOS/Source/event_groups.c **** 	EventGroup_t *pxEventBits;
  94              		.loc 1 94 2 is_stmt 0 view .LVU22
  95 0002 10B5     		push	{r4, lr}
  96              	.LCFI0:
  97              		.cfi_def_cfa_offset 8
  98              		.cfi_offset 4, -8
  99              		.cfi_offset 14, -4
 100 0004 82B0     		sub	sp, sp, #8
 101              	.LCFI1:
 102              		.cfi_def_cfa_offset 16
 103 0006 0446     		mov	r4, r0
ARM GAS  /tmp/cc9c6oGu.s 			page 15


  98:Middlewares/Third_Party/FreeRTOS/Source/event_groups.c **** 
 104              		.loc 1 98 37 is_stmt 1 discriminator 2 view .LVU23
 105              	.LBB36:
 105:Middlewares/Third_Party/FreeRTOS/Source/event_groups.c **** 			configASSERT( xSize == sizeof( EventGroup_t ) );
 106              		.loc 1 105 4 view .LVU24
 105:Middlewares/Third_Party/FreeRTOS/Source/event_groups.c **** 			configASSERT( xSize == sizeof( EventGroup_t ) );
 107              		.loc 1 105 20 is_stmt 0 view .LVU25
 108 0008 2023     		movs	r3, #32
 109 000a 0193     		str	r3, [sp, #4]
 106:Middlewares/Third_Party/FreeRTOS/Source/event_groups.c **** 		}
 110              		.loc 1 106 4 is_stmt 1 view .LVU26
 111 000c 019B     		ldr	r3, [sp, #4]
 112 000e 202B     		cmp	r3, #32
 113 0010 11D0     		beq	.L9
 106:Middlewares/Third_Party/FreeRTOS/Source/event_groups.c **** 		}
 114              		.loc 1 106 4 discriminator 1 view .LVU27
 115              	.LBB37:
 116              	.LBI37:
 117              		.file 2 "Middlewares/Third_Party/FreeRTOS/Source/portable/GCC/ARM_CM3/portmacro.h"
   1:Middlewares/Third_Party/FreeRTOS/Source/portable/GCC/ARM_CM3/portmacro.h **** /*
   2:Middlewares/Third_Party/FreeRTOS/Source/portable/GCC/ARM_CM3/portmacro.h ****  * FreeRTOS Kernel V10.0.1
   3:Middlewares/Third_Party/FreeRTOS/Source/portable/GCC/ARM_CM3/portmacro.h ****  * Copyright (C) 2017 Amazon.com, Inc. or its affiliates.  All Rights Reserved.
   4:Middlewares/Third_Party/FreeRTOS/Source/portable/GCC/ARM_CM3/portmacro.h ****  *
   5:Middlewares/Third_Party/FreeRTOS/Source/portable/GCC/ARM_CM3/portmacro.h ****  * Permission is hereby granted, free of charge, to any person obtaining a copy of
   6:Middlewares/Third_Party/FreeRTOS/Source/portable/GCC/ARM_CM3/portmacro.h ****  * this software and associated documentation files (the "Software"), to deal in
   7:Middlewares/Third_Party/FreeRTOS/Source/portable/GCC/ARM_CM3/portmacro.h ****  * the Software without restriction, including without limitation the rights to
   8:Middlewares/Third_Party/FreeRTOS/Source/portable/GCC/ARM_CM3/portmacro.h ****  * use, copy, modify, merge, publish, distribute, sublicense, and/or sell copies of
   9:Middlewares/Third_Party/FreeRTOS/Source/portable/GCC/ARM_CM3/portmacro.h ****  * the Software, and to permit persons to whom the Software is furnished to do so,
  10:Middlewares/Third_Party/FreeRTOS/Source/portable/GCC/ARM_CM3/portmacro.h ****  * subject to the following conditions:
  11:Middlewares/Third_Party/FreeRTOS/Source/portable/GCC/ARM_CM3/portmacro.h ****  *
  12:Middlewares/Third_Party/FreeRTOS/Source/portable/GCC/ARM_CM3/portmacro.h ****  * The above copyright notice and this permission notice shall be included in all
  13:Middlewares/Third_Party/FreeRTOS/Source/portable/GCC/ARM_CM3/portmacro.h ****  * copies or substantial portions of the Software.
  14:Middlewares/Third_Party/FreeRTOS/Source/portable/GCC/ARM_CM3/portmacro.h ****  *
  15:Middlewares/Third_Party/FreeRTOS/Source/portable/GCC/ARM_CM3/portmacro.h ****  * THE SOFTWARE IS PROVIDED "AS IS", WITHOUT WARRANTY OF ANY KIND, EXPRESS OR
  16:Middlewares/Third_Party/FreeRTOS/Source/portable/GCC/ARM_CM3/portmacro.h ****  * IMPLIED, INCLUDING BUT NOT LIMITED TO THE WARRANTIES OF MERCHANTABILITY, FITNESS
  17:Middlewares/Third_Party/FreeRTOS/Source/portable/GCC/ARM_CM3/portmacro.h ****  * FOR A PARTICULAR PURPOSE AND NONINFRINGEMENT. IN NO EVENT SHALL THE AUTHORS OR
  18:Middlewares/Third_Party/FreeRTOS/Source/portable/GCC/ARM_CM3/portmacro.h ****  * COPYRIGHT HOLDERS BE LIABLE FOR ANY CLAIM, DAMAGES OR OTHER LIABILITY, WHETHER
  19:Middlewares/Third_Party/FreeRTOS/Source/portable/GCC/ARM_CM3/portmacro.h ****  * IN AN ACTION OF CONTRACT, TORT OR OTHERWISE, ARISING FROM, OUT OF OR IN
  20:Middlewares/Third_Party/FreeRTOS/Source/portable/GCC/ARM_CM3/portmacro.h ****  * CONNECTION WITH THE SOFTWARE OR THE USE OR OTHER DEALINGS IN THE SOFTWARE.
  21:Middlewares/Third_Party/FreeRTOS/Source/portable/GCC/ARM_CM3/portmacro.h ****  *
  22:Middlewares/Third_Party/FreeRTOS/Source/portable/GCC/ARM_CM3/portmacro.h ****  * http://www.FreeRTOS.org
  23:Middlewares/Third_Party/FreeRTOS/Source/portable/GCC/ARM_CM3/portmacro.h ****  * http://aws.amazon.com/freertos
  24:Middlewares/Third_Party/FreeRTOS/Source/portable/GCC/ARM_CM3/portmacro.h ****  *
  25:Middlewares/Third_Party/FreeRTOS/Source/portable/GCC/ARM_CM3/portmacro.h ****  * 1 tab == 4 spaces!
  26:Middlewares/Third_Party/FreeRTOS/Source/portable/GCC/ARM_CM3/portmacro.h ****  */
  27:Middlewares/Third_Party/FreeRTOS/Source/portable/GCC/ARM_CM3/portmacro.h **** 
  28:Middlewares/Third_Party/FreeRTOS/Source/portable/GCC/ARM_CM3/portmacro.h **** 
  29:Middlewares/Third_Party/FreeRTOS/Source/portable/GCC/ARM_CM3/portmacro.h **** #ifndef PORTMACRO_H
  30:Middlewares/Third_Party/FreeRTOS/Source/portable/GCC/ARM_CM3/portmacro.h **** #define PORTMACRO_H
  31:Middlewares/Third_Party/FreeRTOS/Source/portable/GCC/ARM_CM3/portmacro.h **** 
  32:Middlewares/Third_Party/FreeRTOS/Source/portable/GCC/ARM_CM3/portmacro.h **** #ifdef __cplusplus
  33:Middlewares/Third_Party/FreeRTOS/Source/portable/GCC/ARM_CM3/portmacro.h **** extern "C" {
  34:Middlewares/Third_Party/FreeRTOS/Source/portable/GCC/ARM_CM3/portmacro.h **** #endif
  35:Middlewares/Third_Party/FreeRTOS/Source/portable/GCC/ARM_CM3/portmacro.h **** 
  36:Middlewares/Third_Party/FreeRTOS/Source/portable/GCC/ARM_CM3/portmacro.h **** /*-----------------------------------------------------------
  37:Middlewares/Third_Party/FreeRTOS/Source/portable/GCC/ARM_CM3/portmacro.h ****  * Port specific definitions.
  38:Middlewares/Third_Party/FreeRTOS/Source/portable/GCC/ARM_CM3/portmacro.h ****  *
ARM GAS  /tmp/cc9c6oGu.s 			page 16


  39:Middlewares/Third_Party/FreeRTOS/Source/portable/GCC/ARM_CM3/portmacro.h ****  * The settings in this file configure FreeRTOS correctly for the
  40:Middlewares/Third_Party/FreeRTOS/Source/portable/GCC/ARM_CM3/portmacro.h ****  * given hardware and compiler.
  41:Middlewares/Third_Party/FreeRTOS/Source/portable/GCC/ARM_CM3/portmacro.h ****  *
  42:Middlewares/Third_Party/FreeRTOS/Source/portable/GCC/ARM_CM3/portmacro.h ****  * These settings should not be altered.
  43:Middlewares/Third_Party/FreeRTOS/Source/portable/GCC/ARM_CM3/portmacro.h ****  *-----------------------------------------------------------
  44:Middlewares/Third_Party/FreeRTOS/Source/portable/GCC/ARM_CM3/portmacro.h ****  */
  45:Middlewares/Third_Party/FreeRTOS/Source/portable/GCC/ARM_CM3/portmacro.h **** 
  46:Middlewares/Third_Party/FreeRTOS/Source/portable/GCC/ARM_CM3/portmacro.h **** /* Type definitions. */
  47:Middlewares/Third_Party/FreeRTOS/Source/portable/GCC/ARM_CM3/portmacro.h **** #define portCHAR		char
  48:Middlewares/Third_Party/FreeRTOS/Source/portable/GCC/ARM_CM3/portmacro.h **** #define portFLOAT		float
  49:Middlewares/Third_Party/FreeRTOS/Source/portable/GCC/ARM_CM3/portmacro.h **** #define portDOUBLE		double
  50:Middlewares/Third_Party/FreeRTOS/Source/portable/GCC/ARM_CM3/portmacro.h **** #define portLONG		long
  51:Middlewares/Third_Party/FreeRTOS/Source/portable/GCC/ARM_CM3/portmacro.h **** #define portSHORT		short
  52:Middlewares/Third_Party/FreeRTOS/Source/portable/GCC/ARM_CM3/portmacro.h **** #define portSTACK_TYPE	uint32_t
  53:Middlewares/Third_Party/FreeRTOS/Source/portable/GCC/ARM_CM3/portmacro.h **** #define portBASE_TYPE	long
  54:Middlewares/Third_Party/FreeRTOS/Source/portable/GCC/ARM_CM3/portmacro.h **** 
  55:Middlewares/Third_Party/FreeRTOS/Source/portable/GCC/ARM_CM3/portmacro.h **** typedef portSTACK_TYPE StackType_t;
  56:Middlewares/Third_Party/FreeRTOS/Source/portable/GCC/ARM_CM3/portmacro.h **** typedef long BaseType_t;
  57:Middlewares/Third_Party/FreeRTOS/Source/portable/GCC/ARM_CM3/portmacro.h **** typedef unsigned long UBaseType_t;
  58:Middlewares/Third_Party/FreeRTOS/Source/portable/GCC/ARM_CM3/portmacro.h **** 
  59:Middlewares/Third_Party/FreeRTOS/Source/portable/GCC/ARM_CM3/portmacro.h **** #if( configUSE_16_BIT_TICKS == 1 )
  60:Middlewares/Third_Party/FreeRTOS/Source/portable/GCC/ARM_CM3/portmacro.h **** 	typedef uint16_t TickType_t;
  61:Middlewares/Third_Party/FreeRTOS/Source/portable/GCC/ARM_CM3/portmacro.h **** 	#define portMAX_DELAY ( TickType_t ) 0xffff
  62:Middlewares/Third_Party/FreeRTOS/Source/portable/GCC/ARM_CM3/portmacro.h **** #else
  63:Middlewares/Third_Party/FreeRTOS/Source/portable/GCC/ARM_CM3/portmacro.h **** 	typedef uint32_t TickType_t;
  64:Middlewares/Third_Party/FreeRTOS/Source/portable/GCC/ARM_CM3/portmacro.h **** 	#define portMAX_DELAY ( TickType_t ) 0xffffffffUL
  65:Middlewares/Third_Party/FreeRTOS/Source/portable/GCC/ARM_CM3/portmacro.h **** 
  66:Middlewares/Third_Party/FreeRTOS/Source/portable/GCC/ARM_CM3/portmacro.h **** 	/* 32-bit tick type on a 32-bit architecture, so reads of the tick count do
  67:Middlewares/Third_Party/FreeRTOS/Source/portable/GCC/ARM_CM3/portmacro.h **** 	not need to be guarded with a critical section. */
  68:Middlewares/Third_Party/FreeRTOS/Source/portable/GCC/ARM_CM3/portmacro.h **** 	#define portTICK_TYPE_IS_ATOMIC 1
  69:Middlewares/Third_Party/FreeRTOS/Source/portable/GCC/ARM_CM3/portmacro.h **** #endif
  70:Middlewares/Third_Party/FreeRTOS/Source/portable/GCC/ARM_CM3/portmacro.h **** /*-----------------------------------------------------------*/
  71:Middlewares/Third_Party/FreeRTOS/Source/portable/GCC/ARM_CM3/portmacro.h **** 
  72:Middlewares/Third_Party/FreeRTOS/Source/portable/GCC/ARM_CM3/portmacro.h **** /* Architecture specifics. */
  73:Middlewares/Third_Party/FreeRTOS/Source/portable/GCC/ARM_CM3/portmacro.h **** #define portSTACK_GROWTH			( -1 )
  74:Middlewares/Third_Party/FreeRTOS/Source/portable/GCC/ARM_CM3/portmacro.h **** #define portTICK_PERIOD_MS			( ( TickType_t ) 1000 / configTICK_RATE_HZ )
  75:Middlewares/Third_Party/FreeRTOS/Source/portable/GCC/ARM_CM3/portmacro.h **** #define portBYTE_ALIGNMENT			8
  76:Middlewares/Third_Party/FreeRTOS/Source/portable/GCC/ARM_CM3/portmacro.h **** /*-----------------------------------------------------------*/
  77:Middlewares/Third_Party/FreeRTOS/Source/portable/GCC/ARM_CM3/portmacro.h **** 
  78:Middlewares/Third_Party/FreeRTOS/Source/portable/GCC/ARM_CM3/portmacro.h **** /* Scheduler utilities. */
  79:Middlewares/Third_Party/FreeRTOS/Source/portable/GCC/ARM_CM3/portmacro.h **** #define portYIELD() 															\
  80:Middlewares/Third_Party/FreeRTOS/Source/portable/GCC/ARM_CM3/portmacro.h **** {																				\
  81:Middlewares/Third_Party/FreeRTOS/Source/portable/GCC/ARM_CM3/portmacro.h **** 	/* Set a PendSV to request a context switch. */								\
  82:Middlewares/Third_Party/FreeRTOS/Source/portable/GCC/ARM_CM3/portmacro.h **** 	portNVIC_INT_CTRL_REG = portNVIC_PENDSVSET_BIT;								\
  83:Middlewares/Third_Party/FreeRTOS/Source/portable/GCC/ARM_CM3/portmacro.h **** 																				\
  84:Middlewares/Third_Party/FreeRTOS/Source/portable/GCC/ARM_CM3/portmacro.h **** 	/* Barriers are normally not required but do ensure the code is completely	\
  85:Middlewares/Third_Party/FreeRTOS/Source/portable/GCC/ARM_CM3/portmacro.h **** 	within the specified behaviour for the architecture. */						\
  86:Middlewares/Third_Party/FreeRTOS/Source/portable/GCC/ARM_CM3/portmacro.h **** 	__asm volatile( "dsb" ::: "memory" );										\
  87:Middlewares/Third_Party/FreeRTOS/Source/portable/GCC/ARM_CM3/portmacro.h **** 	__asm volatile( "isb" );													\
  88:Middlewares/Third_Party/FreeRTOS/Source/portable/GCC/ARM_CM3/portmacro.h **** }
  89:Middlewares/Third_Party/FreeRTOS/Source/portable/GCC/ARM_CM3/portmacro.h **** 
  90:Middlewares/Third_Party/FreeRTOS/Source/portable/GCC/ARM_CM3/portmacro.h **** #define portNVIC_INT_CTRL_REG		( * ( ( volatile uint32_t * ) 0xe000ed04 ) )
  91:Middlewares/Third_Party/FreeRTOS/Source/portable/GCC/ARM_CM3/portmacro.h **** #define portNVIC_PENDSVSET_BIT		( 1UL << 28UL )
  92:Middlewares/Third_Party/FreeRTOS/Source/portable/GCC/ARM_CM3/portmacro.h **** #define portEND_SWITCHING_ISR( xSwitchRequired ) if( xSwitchRequired != pdFALSE ) portYIELD()
  93:Middlewares/Third_Party/FreeRTOS/Source/portable/GCC/ARM_CM3/portmacro.h **** #define portYIELD_FROM_ISR( x ) portEND_SWITCHING_ISR( x )
  94:Middlewares/Third_Party/FreeRTOS/Source/portable/GCC/ARM_CM3/portmacro.h **** /*-----------------------------------------------------------*/
  95:Middlewares/Third_Party/FreeRTOS/Source/portable/GCC/ARM_CM3/portmacro.h **** 
ARM GAS  /tmp/cc9c6oGu.s 			page 17


  96:Middlewares/Third_Party/FreeRTOS/Source/portable/GCC/ARM_CM3/portmacro.h **** /* Critical section management. */
  97:Middlewares/Third_Party/FreeRTOS/Source/portable/GCC/ARM_CM3/portmacro.h **** extern void vPortEnterCritical( void );
  98:Middlewares/Third_Party/FreeRTOS/Source/portable/GCC/ARM_CM3/portmacro.h **** extern void vPortExitCritical( void );
  99:Middlewares/Third_Party/FreeRTOS/Source/portable/GCC/ARM_CM3/portmacro.h **** #define portSET_INTERRUPT_MASK_FROM_ISR()		ulPortRaiseBASEPRI()
 100:Middlewares/Third_Party/FreeRTOS/Source/portable/GCC/ARM_CM3/portmacro.h **** #define portCLEAR_INTERRUPT_MASK_FROM_ISR(x)	vPortSetBASEPRI(x)
 101:Middlewares/Third_Party/FreeRTOS/Source/portable/GCC/ARM_CM3/portmacro.h **** #define portDISABLE_INTERRUPTS()				vPortRaiseBASEPRI()
 102:Middlewares/Third_Party/FreeRTOS/Source/portable/GCC/ARM_CM3/portmacro.h **** #define portENABLE_INTERRUPTS()					vPortSetBASEPRI(0)
 103:Middlewares/Third_Party/FreeRTOS/Source/portable/GCC/ARM_CM3/portmacro.h **** #define portENTER_CRITICAL()					vPortEnterCritical()
 104:Middlewares/Third_Party/FreeRTOS/Source/portable/GCC/ARM_CM3/portmacro.h **** #define portEXIT_CRITICAL()						vPortExitCritical()
 105:Middlewares/Third_Party/FreeRTOS/Source/portable/GCC/ARM_CM3/portmacro.h **** 
 106:Middlewares/Third_Party/FreeRTOS/Source/portable/GCC/ARM_CM3/portmacro.h **** /*-----------------------------------------------------------*/
 107:Middlewares/Third_Party/FreeRTOS/Source/portable/GCC/ARM_CM3/portmacro.h **** 
 108:Middlewares/Third_Party/FreeRTOS/Source/portable/GCC/ARM_CM3/portmacro.h **** /* Task function macros as described on the FreeRTOS.org WEB site.  These are
 109:Middlewares/Third_Party/FreeRTOS/Source/portable/GCC/ARM_CM3/portmacro.h **** not necessary for to use this port.  They are defined so the common demo files
 110:Middlewares/Third_Party/FreeRTOS/Source/portable/GCC/ARM_CM3/portmacro.h **** (which build with all the ports) will build. */
 111:Middlewares/Third_Party/FreeRTOS/Source/portable/GCC/ARM_CM3/portmacro.h **** #define portTASK_FUNCTION_PROTO( vFunction, pvParameters ) void vFunction( void *pvParameters )
 112:Middlewares/Third_Party/FreeRTOS/Source/portable/GCC/ARM_CM3/portmacro.h **** #define portTASK_FUNCTION( vFunction, pvParameters ) void vFunction( void *pvParameters )
 113:Middlewares/Third_Party/FreeRTOS/Source/portable/GCC/ARM_CM3/portmacro.h **** /*-----------------------------------------------------------*/
 114:Middlewares/Third_Party/FreeRTOS/Source/portable/GCC/ARM_CM3/portmacro.h **** 
 115:Middlewares/Third_Party/FreeRTOS/Source/portable/GCC/ARM_CM3/portmacro.h **** /* Tickless idle/low power functionality. */
 116:Middlewares/Third_Party/FreeRTOS/Source/portable/GCC/ARM_CM3/portmacro.h **** #ifndef portSUPPRESS_TICKS_AND_SLEEP
 117:Middlewares/Third_Party/FreeRTOS/Source/portable/GCC/ARM_CM3/portmacro.h **** 	extern void vPortSuppressTicksAndSleep( TickType_t xExpectedIdleTime );
 118:Middlewares/Third_Party/FreeRTOS/Source/portable/GCC/ARM_CM3/portmacro.h **** 	#define portSUPPRESS_TICKS_AND_SLEEP( xExpectedIdleTime ) vPortSuppressTicksAndSleep( xExpectedIdl
 119:Middlewares/Third_Party/FreeRTOS/Source/portable/GCC/ARM_CM3/portmacro.h **** #endif
 120:Middlewares/Third_Party/FreeRTOS/Source/portable/GCC/ARM_CM3/portmacro.h **** /*-----------------------------------------------------------*/
 121:Middlewares/Third_Party/FreeRTOS/Source/portable/GCC/ARM_CM3/portmacro.h **** 
 122:Middlewares/Third_Party/FreeRTOS/Source/portable/GCC/ARM_CM3/portmacro.h **** /* Architecture specific optimisations. */
 123:Middlewares/Third_Party/FreeRTOS/Source/portable/GCC/ARM_CM3/portmacro.h **** #ifndef configUSE_PORT_OPTIMISED_TASK_SELECTION
 124:Middlewares/Third_Party/FreeRTOS/Source/portable/GCC/ARM_CM3/portmacro.h **** 	#define configUSE_PORT_OPTIMISED_TASK_SELECTION 1
 125:Middlewares/Third_Party/FreeRTOS/Source/portable/GCC/ARM_CM3/portmacro.h **** #endif
 126:Middlewares/Third_Party/FreeRTOS/Source/portable/GCC/ARM_CM3/portmacro.h **** 
 127:Middlewares/Third_Party/FreeRTOS/Source/portable/GCC/ARM_CM3/portmacro.h **** #if configUSE_PORT_OPTIMISED_TASK_SELECTION == 1
 128:Middlewares/Third_Party/FreeRTOS/Source/portable/GCC/ARM_CM3/portmacro.h **** 
 129:Middlewares/Third_Party/FreeRTOS/Source/portable/GCC/ARM_CM3/portmacro.h **** 	/* Generic helper function. */
 130:Middlewares/Third_Party/FreeRTOS/Source/portable/GCC/ARM_CM3/portmacro.h **** 	__attribute__( ( always_inline ) ) static inline uint8_t ucPortCountLeadingZeros( uint32_t ulBitma
 131:Middlewares/Third_Party/FreeRTOS/Source/portable/GCC/ARM_CM3/portmacro.h **** 	{
 132:Middlewares/Third_Party/FreeRTOS/Source/portable/GCC/ARM_CM3/portmacro.h **** 	uint8_t ucReturn;
 133:Middlewares/Third_Party/FreeRTOS/Source/portable/GCC/ARM_CM3/portmacro.h **** 
 134:Middlewares/Third_Party/FreeRTOS/Source/portable/GCC/ARM_CM3/portmacro.h **** 		__asm volatile ( "clz %0, %1" : "=r" ( ucReturn ) : "r" ( ulBitmap ) : "memory" );
 135:Middlewares/Third_Party/FreeRTOS/Source/portable/GCC/ARM_CM3/portmacro.h **** 		return ucReturn;
 136:Middlewares/Third_Party/FreeRTOS/Source/portable/GCC/ARM_CM3/portmacro.h **** 	}
 137:Middlewares/Third_Party/FreeRTOS/Source/portable/GCC/ARM_CM3/portmacro.h **** 
 138:Middlewares/Third_Party/FreeRTOS/Source/portable/GCC/ARM_CM3/portmacro.h **** 	/* Check the configuration. */
 139:Middlewares/Third_Party/FreeRTOS/Source/portable/GCC/ARM_CM3/portmacro.h **** 	#if( configMAX_PRIORITIES > 32 )
 140:Middlewares/Third_Party/FreeRTOS/Source/portable/GCC/ARM_CM3/portmacro.h **** 		#error configUSE_PORT_OPTIMISED_TASK_SELECTION can only be set to 1 when configMAX_PRIORITIES is 
 141:Middlewares/Third_Party/FreeRTOS/Source/portable/GCC/ARM_CM3/portmacro.h **** 	#endif
 142:Middlewares/Third_Party/FreeRTOS/Source/portable/GCC/ARM_CM3/portmacro.h **** 
 143:Middlewares/Third_Party/FreeRTOS/Source/portable/GCC/ARM_CM3/portmacro.h **** 	/* Store/clear the ready priorities in a bit map. */
 144:Middlewares/Third_Party/FreeRTOS/Source/portable/GCC/ARM_CM3/portmacro.h **** 	#define portRECORD_READY_PRIORITY( uxPriority, uxReadyPriorities ) ( uxReadyPriorities ) |= ( 1UL 
 145:Middlewares/Third_Party/FreeRTOS/Source/portable/GCC/ARM_CM3/portmacro.h **** 	#define portRESET_READY_PRIORITY( uxPriority, uxReadyPriorities ) ( uxReadyPriorities ) &= ~( 1UL 
 146:Middlewares/Third_Party/FreeRTOS/Source/portable/GCC/ARM_CM3/portmacro.h **** 
 147:Middlewares/Third_Party/FreeRTOS/Source/portable/GCC/ARM_CM3/portmacro.h **** 	/*-----------------------------------------------------------*/
 148:Middlewares/Third_Party/FreeRTOS/Source/portable/GCC/ARM_CM3/portmacro.h **** 
 149:Middlewares/Third_Party/FreeRTOS/Source/portable/GCC/ARM_CM3/portmacro.h **** 	#define portGET_HIGHEST_PRIORITY( uxTopPriority, uxReadyPriorities ) uxTopPriority = ( 31UL - ( ui
 150:Middlewares/Third_Party/FreeRTOS/Source/portable/GCC/ARM_CM3/portmacro.h **** 
 151:Middlewares/Third_Party/FreeRTOS/Source/portable/GCC/ARM_CM3/portmacro.h **** #endif /* configUSE_PORT_OPTIMISED_TASK_SELECTION */
 152:Middlewares/Third_Party/FreeRTOS/Source/portable/GCC/ARM_CM3/portmacro.h **** 
ARM GAS  /tmp/cc9c6oGu.s 			page 18


 153:Middlewares/Third_Party/FreeRTOS/Source/portable/GCC/ARM_CM3/portmacro.h **** /*-----------------------------------------------------------*/
 154:Middlewares/Third_Party/FreeRTOS/Source/portable/GCC/ARM_CM3/portmacro.h **** 
 155:Middlewares/Third_Party/FreeRTOS/Source/portable/GCC/ARM_CM3/portmacro.h **** #ifdef configASSERT
 156:Middlewares/Third_Party/FreeRTOS/Source/portable/GCC/ARM_CM3/portmacro.h **** 	void vPortValidateInterruptPriority( void );
 157:Middlewares/Third_Party/FreeRTOS/Source/portable/GCC/ARM_CM3/portmacro.h **** 	#define portASSERT_IF_INTERRUPT_PRIORITY_INVALID() 	vPortValidateInterruptPriority()
 158:Middlewares/Third_Party/FreeRTOS/Source/portable/GCC/ARM_CM3/portmacro.h **** #endif
 159:Middlewares/Third_Party/FreeRTOS/Source/portable/GCC/ARM_CM3/portmacro.h **** 
 160:Middlewares/Third_Party/FreeRTOS/Source/portable/GCC/ARM_CM3/portmacro.h **** /* portNOP() is not required by this port. */
 161:Middlewares/Third_Party/FreeRTOS/Source/portable/GCC/ARM_CM3/portmacro.h **** #define portNOP()
 162:Middlewares/Third_Party/FreeRTOS/Source/portable/GCC/ARM_CM3/portmacro.h **** 
 163:Middlewares/Third_Party/FreeRTOS/Source/portable/GCC/ARM_CM3/portmacro.h **** #define portINLINE	__inline
 164:Middlewares/Third_Party/FreeRTOS/Source/portable/GCC/ARM_CM3/portmacro.h **** 
 165:Middlewares/Third_Party/FreeRTOS/Source/portable/GCC/ARM_CM3/portmacro.h **** #ifndef portFORCE_INLINE
 166:Middlewares/Third_Party/FreeRTOS/Source/portable/GCC/ARM_CM3/portmacro.h **** 	#define portFORCE_INLINE inline __attribute__(( always_inline))
 167:Middlewares/Third_Party/FreeRTOS/Source/portable/GCC/ARM_CM3/portmacro.h **** #endif
 168:Middlewares/Third_Party/FreeRTOS/Source/portable/GCC/ARM_CM3/portmacro.h **** 
 169:Middlewares/Third_Party/FreeRTOS/Source/portable/GCC/ARM_CM3/portmacro.h **** portFORCE_INLINE static BaseType_t xPortIsInsideInterrupt( void )
 170:Middlewares/Third_Party/FreeRTOS/Source/portable/GCC/ARM_CM3/portmacro.h **** {
 171:Middlewares/Third_Party/FreeRTOS/Source/portable/GCC/ARM_CM3/portmacro.h **** uint32_t ulCurrentInterrupt;
 172:Middlewares/Third_Party/FreeRTOS/Source/portable/GCC/ARM_CM3/portmacro.h **** BaseType_t xReturn;
 173:Middlewares/Third_Party/FreeRTOS/Source/portable/GCC/ARM_CM3/portmacro.h **** 
 174:Middlewares/Third_Party/FreeRTOS/Source/portable/GCC/ARM_CM3/portmacro.h **** 	/* Obtain the number of the currently executing interrupt. */
 175:Middlewares/Third_Party/FreeRTOS/Source/portable/GCC/ARM_CM3/portmacro.h **** 	__asm volatile( "mrs %0, ipsr" : "=r"( ulCurrentInterrupt ) :: "memory" );
 176:Middlewares/Third_Party/FreeRTOS/Source/portable/GCC/ARM_CM3/portmacro.h **** 
 177:Middlewares/Third_Party/FreeRTOS/Source/portable/GCC/ARM_CM3/portmacro.h **** 	if( ulCurrentInterrupt == 0 )
 178:Middlewares/Third_Party/FreeRTOS/Source/portable/GCC/ARM_CM3/portmacro.h **** 	{
 179:Middlewares/Third_Party/FreeRTOS/Source/portable/GCC/ARM_CM3/portmacro.h **** 		xReturn = pdFALSE;
 180:Middlewares/Third_Party/FreeRTOS/Source/portable/GCC/ARM_CM3/portmacro.h **** 	}
 181:Middlewares/Third_Party/FreeRTOS/Source/portable/GCC/ARM_CM3/portmacro.h **** 	else
 182:Middlewares/Third_Party/FreeRTOS/Source/portable/GCC/ARM_CM3/portmacro.h **** 	{
 183:Middlewares/Third_Party/FreeRTOS/Source/portable/GCC/ARM_CM3/portmacro.h **** 		xReturn = pdTRUE;
 184:Middlewares/Third_Party/FreeRTOS/Source/portable/GCC/ARM_CM3/portmacro.h **** 	}
 185:Middlewares/Third_Party/FreeRTOS/Source/portable/GCC/ARM_CM3/portmacro.h **** 
 186:Middlewares/Third_Party/FreeRTOS/Source/portable/GCC/ARM_CM3/portmacro.h **** 	return xReturn;
 187:Middlewares/Third_Party/FreeRTOS/Source/portable/GCC/ARM_CM3/portmacro.h **** }
 188:Middlewares/Third_Party/FreeRTOS/Source/portable/GCC/ARM_CM3/portmacro.h **** 
 189:Middlewares/Third_Party/FreeRTOS/Source/portable/GCC/ARM_CM3/portmacro.h **** /*-----------------------------------------------------------*/
 190:Middlewares/Third_Party/FreeRTOS/Source/portable/GCC/ARM_CM3/portmacro.h **** 
 191:Middlewares/Third_Party/FreeRTOS/Source/portable/GCC/ARM_CM3/portmacro.h **** portFORCE_INLINE static void vPortRaiseBASEPRI( void )
 118              		.loc 2 191 30 view .LVU28
 119              	.LBB38:
 192:Middlewares/Third_Party/FreeRTOS/Source/portable/GCC/ARM_CM3/portmacro.h **** {
 193:Middlewares/Third_Party/FreeRTOS/Source/portable/GCC/ARM_CM3/portmacro.h **** uint32_t ulNewBASEPRI;
 120              		.loc 2 193 1 view .LVU29
 194:Middlewares/Third_Party/FreeRTOS/Source/portable/GCC/ARM_CM3/portmacro.h **** 
 195:Middlewares/Third_Party/FreeRTOS/Source/portable/GCC/ARM_CM3/portmacro.h **** 	__asm volatile
 121              		.loc 2 195 2 view .LVU30
 122              		.syntax unified
 123              	@ 195 "Middlewares/Third_Party/FreeRTOS/Source/portable/GCC/ARM_CM3/portmacro.h" 1
 124 0012 4FF05003 			mov r3, #80												
 125 0016 83F31188 		msr basepri, r3											
 126 001a BFF36F8F 		isb														
 127 001e BFF34F8F 		dsb														
 128              	
 129              	@ 0 "" 2
 130              		.thumb
 131              		.syntax unified
ARM GAS  /tmp/cc9c6oGu.s 			page 19


 132              	.L10:
 133              	.LBE38:
 134              	.LBE37:
 106:Middlewares/Third_Party/FreeRTOS/Source/event_groups.c **** 		}
 135              		.loc 1 106 4 discriminator 3 view .LVU31
 106:Middlewares/Third_Party/FreeRTOS/Source/event_groups.c **** 		}
 136              		.loc 1 106 4 discriminator 3 view .LVU32
 137 0022 FEE7     		b	.L10
 138              	.L13:
 139              	.LCFI2:
 140              		.cfi_def_cfa_offset 0
 141              		.cfi_restore 4
 142              		.cfi_restore 14
 106:Middlewares/Third_Party/FreeRTOS/Source/event_groups.c **** 		}
 143              		.loc 1 106 4 is_stmt 0 discriminator 3 view .LVU33
 144              	.LBE36:
  98:Middlewares/Third_Party/FreeRTOS/Source/event_groups.c **** 
 145              		.loc 1 98 3 is_stmt 1 discriminator 1 view .LVU34
 146              	.LBB39:
 147              	.LBI39:
 191:Middlewares/Third_Party/FreeRTOS/Source/portable/GCC/ARM_CM3/portmacro.h **** {
 148              		.loc 2 191 30 view .LVU35
 149              	.LBB40:
 193:Middlewares/Third_Party/FreeRTOS/Source/portable/GCC/ARM_CM3/portmacro.h **** 
 150              		.loc 2 193 1 view .LVU36
 151              		.loc 2 195 2 view .LVU37
 152              		.syntax unified
 153              	@ 195 "Middlewares/Third_Party/FreeRTOS/Source/portable/GCC/ARM_CM3/portmacro.h" 1
 154 0024 4FF05003 			mov r3, #80												
 155 0028 83F31188 		msr basepri, r3											
 156 002c BFF36F8F 		isb														
 157 0030 BFF34F8F 		dsb														
 158              	
 159              	@ 0 "" 2
 160              		.thumb
 161              		.syntax unified
 162              	.L8:
 163              	.LBE40:
 164              	.LBE39:
  98:Middlewares/Third_Party/FreeRTOS/Source/event_groups.c **** 
 165              		.loc 1 98 3 discriminator 3 view .LVU38
  98:Middlewares/Third_Party/FreeRTOS/Source/event_groups.c **** 
 166              		.loc 1 98 3 discriminator 3 view .LVU39
 167 0034 FEE7     		b	.L8
 168              	.L9:
 169              	.LCFI3:
 170              		.cfi_def_cfa_offset 16
 171              		.cfi_offset 4, -8
 172              		.cfi_offset 14, -4
 173              	.LBB41:
 106:Middlewares/Third_Party/FreeRTOS/Source/event_groups.c **** 		}
 174              		.loc 1 106 51 discriminator 2 view .LVU40
 175              	.LBE41:
 111:Middlewares/Third_Party/FreeRTOS/Source/event_groups.c **** 
 176              		.loc 1 111 3 view .LVU41
 177              	.LVL10:
 113:Middlewares/Third_Party/FreeRTOS/Source/event_groups.c **** 		{
ARM GAS  /tmp/cc9c6oGu.s 			page 20


 178              		.loc 1 113 3 view .LVU42
 115:Middlewares/Third_Party/FreeRTOS/Source/event_groups.c **** 			vListInitialise( &( pxEventBits->xTasksWaitingForBits ) );
 179              		.loc 1 115 4 view .LVU43
 115:Middlewares/Third_Party/FreeRTOS/Source/event_groups.c **** 			vListInitialise( &( pxEventBits->xTasksWaitingForBits ) );
 180              		.loc 1 115 29 is_stmt 0 view .LVU44
 181 0036 0023     		movs	r3, #0
 182 0038 40F8043B 		str	r3, [r0], #4
 183              	.LVL11:
 116:Middlewares/Third_Party/FreeRTOS/Source/event_groups.c **** 
 184              		.loc 1 116 4 is_stmt 1 view .LVU45
 185 003c FFF7FEFF 		bl	vListInitialise
 186              	.LVL12:
 123:Middlewares/Third_Party/FreeRTOS/Source/event_groups.c **** 			}
 187              		.loc 1 123 5 view .LVU46
 123:Middlewares/Third_Party/FreeRTOS/Source/event_groups.c **** 			}
 188              		.loc 1 123 40 is_stmt 0 view .LVU47
 189 0040 0123     		movs	r3, #1
 190 0042 2377     		strb	r3, [r4, #28]
 127:Middlewares/Third_Party/FreeRTOS/Source/event_groups.c **** 		}
 191              		.loc 1 127 42 is_stmt 1 view .LVU48
 131:Middlewares/Third_Party/FreeRTOS/Source/event_groups.c **** 		}
 192              		.loc 1 131 36 view .LVU49
 134:Middlewares/Third_Party/FreeRTOS/Source/event_groups.c **** 	}
 193              		.loc 1 134 3 view .LVU50
 135:Middlewares/Third_Party/FreeRTOS/Source/event_groups.c **** 
 194              		.loc 1 135 2 is_stmt 0 view .LVU51
 195 0044 2046     		mov	r0, r4
 196 0046 02B0     		add	sp, sp, #8
 197              	.LCFI4:
 198              		.cfi_def_cfa_offset 8
 199              		@ sp needed
 200 0048 10BD     		pop	{r4, pc}
 135:Middlewares/Third_Party/FreeRTOS/Source/event_groups.c **** 
 201              		.loc 1 135 2 view .LVU52
 202              		.cfi_endproc
 203              	.LFE4:
 205              		.section	.text.xEventGroupCreate,"ax",%progbits
 206              		.align	1
 207              		.global	xEventGroupCreate
 208              		.syntax unified
 209              		.thumb
 210              		.thumb_func
 212              	xEventGroupCreate:
 213              	.LFB5:
 143:Middlewares/Third_Party/FreeRTOS/Source/event_groups.c **** 	EventGroup_t *pxEventBits;
 214              		.loc 1 143 2 is_stmt 1 view -0
 215              		.cfi_startproc
 216              		@ args = 0, pretend = 0, frame = 0
 217              		@ frame_needed = 0, uses_anonymous_args = 0
 218 0000 38B5     		push	{r3, r4, r5, lr}
 219              	.LCFI5:
 220              		.cfi_def_cfa_offset 16
 221              		.cfi_offset 3, -16
 222              		.cfi_offset 4, -12
 223              		.cfi_offset 5, -8
 224              		.cfi_offset 14, -4
 144:Middlewares/Third_Party/FreeRTOS/Source/event_groups.c **** 
ARM GAS  /tmp/cc9c6oGu.s 			page 21


 225              		.loc 1 144 2 view .LVU54
 147:Middlewares/Third_Party/FreeRTOS/Source/event_groups.c **** 
 226              		.loc 1 147 3 view .LVU55
 147:Middlewares/Third_Party/FreeRTOS/Source/event_groups.c **** 
 227              		.loc 1 147 36 is_stmt 0 view .LVU56
 228 0002 2020     		movs	r0, #32
 229 0004 FFF7FEFF 		bl	pvPortMalloc
 230              	.LVL13:
 149:Middlewares/Third_Party/FreeRTOS/Source/event_groups.c **** 		{
 231              		.loc 1 149 3 is_stmt 1 view .LVU57
 149:Middlewares/Third_Party/FreeRTOS/Source/event_groups.c **** 		{
 232              		.loc 1 149 5 is_stmt 0 view .LVU58
 233 0008 0446     		mov	r4, r0
 234 000a 28B1     		cbz	r0, .L14
 151:Middlewares/Third_Party/FreeRTOS/Source/event_groups.c **** 			vListInitialise( &( pxEventBits->xTasksWaitingForBits ) );
 235              		.loc 1 151 4 is_stmt 1 view .LVU59
 151:Middlewares/Third_Party/FreeRTOS/Source/event_groups.c **** 			vListInitialise( &( pxEventBits->xTasksWaitingForBits ) );
 236              		.loc 1 151 29 is_stmt 0 view .LVU60
 237 000c 0025     		movs	r5, #0
 238 000e 40F8045B 		str	r5, [r0], #4
 239              	.LVL14:
 152:Middlewares/Third_Party/FreeRTOS/Source/event_groups.c **** 
 240              		.loc 1 152 4 is_stmt 1 view .LVU61
 241 0012 FFF7FEFF 		bl	vListInitialise
 242              	.LVL15:
 159:Middlewares/Third_Party/FreeRTOS/Source/event_groups.c **** 			}
 243              		.loc 1 159 5 view .LVU62
 159:Middlewares/Third_Party/FreeRTOS/Source/event_groups.c **** 			}
 244              		.loc 1 159 40 is_stmt 0 view .LVU63
 245 0016 2577     		strb	r5, [r4, #28]
 163:Middlewares/Third_Party/FreeRTOS/Source/event_groups.c **** 		}
 246              		.loc 1 163 42 is_stmt 1 view .LVU64
 167:Middlewares/Third_Party/FreeRTOS/Source/event_groups.c **** 		}
 247              		.loc 1 167 36 view .LVU65
 170:Middlewares/Third_Party/FreeRTOS/Source/event_groups.c **** 	}
 248              		.loc 1 170 3 view .LVU66
 249              	.L14:
 171:Middlewares/Third_Party/FreeRTOS/Source/event_groups.c **** 
 250              		.loc 1 171 2 is_stmt 0 view .LVU67
 251 0018 2046     		mov	r0, r4
 252 001a 38BD     		pop	{r3, r4, r5, pc}
 171:Middlewares/Third_Party/FreeRTOS/Source/event_groups.c **** 
 253              		.loc 1 171 2 view .LVU68
 254              		.cfi_endproc
 255              	.LFE5:
 257              		.section	.text.xEventGroupWaitBits,"ax",%progbits
 258              		.align	1
 259              		.global	xEventGroupWaitBits
 260              		.syntax unified
 261              		.thumb
 262              		.thumb_func
 264              	xEventGroupWaitBits:
 265              	.LVL16:
 266              	.LFB7:
 297:Middlewares/Third_Party/FreeRTOS/Source/event_groups.c **** EventGroup_t *pxEventBits = ( EventGroup_t * ) xEventGroup;
 267              		.loc 1 297 1 is_stmt 1 view -0
 268              		.cfi_startproc
ARM GAS  /tmp/cc9c6oGu.s 			page 22


 269              		@ args = 4, pretend = 0, frame = 0
 270              		@ frame_needed = 0, uses_anonymous_args = 0
 298:Middlewares/Third_Party/FreeRTOS/Source/event_groups.c **** EventBits_t uxReturn, uxControlBits = 0;
 271              		.loc 1 298 1 view .LVU70
 299:Middlewares/Third_Party/FreeRTOS/Source/event_groups.c **** BaseType_t xWaitConditionMet, xAlreadyYielded;
 272              		.loc 1 299 1 view .LVU71
 300:Middlewares/Third_Party/FreeRTOS/Source/event_groups.c **** BaseType_t xTimeoutOccurred = pdFALSE;
 273              		.loc 1 300 1 view .LVU72
 301:Middlewares/Third_Party/FreeRTOS/Source/event_groups.c **** 
 274              		.loc 1 301 1 view .LVU73
 305:Middlewares/Third_Party/FreeRTOS/Source/event_groups.c **** 	configASSERT( ( uxBitsToWaitFor & eventEVENT_BITS_CONTROL_BYTES ) == 0 );
 275              		.loc 1 305 2 view .LVU74
 276 0000 88B1     		cbz	r0, .L38
 297:Middlewares/Third_Party/FreeRTOS/Source/event_groups.c **** EventGroup_t *pxEventBits = ( EventGroup_t * ) xEventGroup;
 277              		.loc 1 297 1 is_stmt 0 view .LVU75
 278 0002 2DE9F041 		push	{r4, r5, r6, r7, r8, lr}
 279              	.LCFI6:
 280              		.cfi_def_cfa_offset 24
 281              		.cfi_offset 4, -24
 282              		.cfi_offset 5, -20
 283              		.cfi_offset 6, -16
 284              		.cfi_offset 7, -12
 285              		.cfi_offset 8, -8
 286              		.cfi_offset 14, -4
 287 0006 0C46     		mov	r4, r1
 288 0008 1646     		mov	r6, r2
 289 000a 1D46     		mov	r5, r3
 290 000c 0746     		mov	r7, r0
 305:Middlewares/Third_Party/FreeRTOS/Source/event_groups.c **** 	configASSERT( ( uxBitsToWaitFor & eventEVENT_BITS_CONTROL_BYTES ) == 0 );
 291              		.loc 1 305 29 is_stmt 1 discriminator 2 view .LVU76
 306:Middlewares/Third_Party/FreeRTOS/Source/event_groups.c **** 	configASSERT( uxBitsToWaitFor != 0 );
 292              		.loc 1 306 2 view .LVU77
 293 000e B1F1807F 		cmp	r1, #16777216
 294 0012 11D3     		bcc	.L20
 306:Middlewares/Third_Party/FreeRTOS/Source/event_groups.c **** 	configASSERT( uxBitsToWaitFor != 0 );
 295              		.loc 1 306 2 discriminator 1 view .LVU78
 296              	.LBB42:
 297              	.LBI42:
 191:Middlewares/Third_Party/FreeRTOS/Source/portable/GCC/ARM_CM3/portmacro.h **** {
 298              		.loc 2 191 30 view .LVU79
 299              	.LBB43:
 193:Middlewares/Third_Party/FreeRTOS/Source/portable/GCC/ARM_CM3/portmacro.h **** 
 300              		.loc 2 193 1 view .LVU80
 301              		.loc 2 195 2 view .LVU81
 302              		.syntax unified
 303              	@ 195 "Middlewares/Third_Party/FreeRTOS/Source/portable/GCC/ARM_CM3/portmacro.h" 1
 304 0014 4FF05003 			mov r3, #80												
 305 0018 83F31188 		msr basepri, r3											
 306 001c BFF36F8F 		isb														
 307 0020 BFF34F8F 		dsb														
 308              	
 309              	@ 0 "" 2
 310              	.LVL17:
 311              		.thumb
 312              		.syntax unified
 313              	.L21:
 314              		.loc 2 195 2 is_stmt 0 view .LVU82
ARM GAS  /tmp/cc9c6oGu.s 			page 23


 315              	.LBE43:
 316              	.LBE42:
 306:Middlewares/Third_Party/FreeRTOS/Source/event_groups.c **** 	configASSERT( uxBitsToWaitFor != 0 );
 317              		.loc 1 306 2 is_stmt 1 discriminator 3 view .LVU83
 306:Middlewares/Third_Party/FreeRTOS/Source/event_groups.c **** 	configASSERT( uxBitsToWaitFor != 0 );
 318              		.loc 1 306 2 discriminator 3 view .LVU84
 319 0024 FEE7     		b	.L21
 320              	.LVL18:
 321              	.L38:
 322              	.LCFI7:
 323              		.cfi_def_cfa_offset 0
 324              		.cfi_restore 4
 325              		.cfi_restore 5
 326              		.cfi_restore 6
 327              		.cfi_restore 7
 328              		.cfi_restore 8
 329              		.cfi_restore 14
 305:Middlewares/Third_Party/FreeRTOS/Source/event_groups.c **** 	configASSERT( ( uxBitsToWaitFor & eventEVENT_BITS_CONTROL_BYTES ) == 0 );
 330              		.loc 1 305 2 discriminator 1 view .LVU85
 331              	.LBB44:
 332              	.LBI44:
 191:Middlewares/Third_Party/FreeRTOS/Source/portable/GCC/ARM_CM3/portmacro.h **** {
 333              		.loc 2 191 30 view .LVU86
 334              	.LBB45:
 193:Middlewares/Third_Party/FreeRTOS/Source/portable/GCC/ARM_CM3/portmacro.h **** 
 335              		.loc 2 193 1 view .LVU87
 336              		.loc 2 195 2 view .LVU88
 337              		.syntax unified
 338              	@ 195 "Middlewares/Third_Party/FreeRTOS/Source/portable/GCC/ARM_CM3/portmacro.h" 1
 339 0026 4FF05003 			mov r3, #80												
 340 002a 83F31188 		msr basepri, r3											
 341 002e BFF36F8F 		isb														
 342 0032 BFF34F8F 		dsb														
 343              	
 344              	@ 0 "" 2
 345              	.LVL19:
 346              		.thumb
 347              		.syntax unified
 348              	.L19:
 349              		.loc 2 195 2 is_stmt 0 view .LVU89
 350              	.LBE45:
 351              	.LBE44:
 305:Middlewares/Third_Party/FreeRTOS/Source/event_groups.c **** 	configASSERT( ( uxBitsToWaitFor & eventEVENT_BITS_CONTROL_BYTES ) == 0 );
 352              		.loc 1 305 2 is_stmt 1 discriminator 3 view .LVU90
 305:Middlewares/Third_Party/FreeRTOS/Source/event_groups.c **** 	configASSERT( ( uxBitsToWaitFor & eventEVENT_BITS_CONTROL_BYTES ) == 0 );
 353              		.loc 1 305 2 discriminator 3 view .LVU91
 354 0036 FEE7     		b	.L19
 355              	.LVL20:
 356              	.L20:
 357              	.LCFI8:
 358              		.cfi_def_cfa_offset 24
 359              		.cfi_offset 4, -24
 360              		.cfi_offset 5, -20
 361              		.cfi_offset 6, -16
 362              		.cfi_offset 7, -12
 363              		.cfi_offset 8, -8
 364              		.cfi_offset 14, -4
ARM GAS  /tmp/cc9c6oGu.s 			page 24


 306:Middlewares/Third_Party/FreeRTOS/Source/event_groups.c **** 	configASSERT( uxBitsToWaitFor != 0 );
 365              		.loc 1 306 74 discriminator 2 view .LVU92
 307:Middlewares/Third_Party/FreeRTOS/Source/event_groups.c **** 	#if ( ( INCLUDE_xTaskGetSchedulerState == 1 ) || ( configUSE_TIMERS == 1 ) )
 366              		.loc 1 307 2 view .LVU93
 367 0038 41B9     		cbnz	r1, .L22
 307:Middlewares/Third_Party/FreeRTOS/Source/event_groups.c **** 	#if ( ( INCLUDE_xTaskGetSchedulerState == 1 ) || ( configUSE_TIMERS == 1 ) )
 368              		.loc 1 307 2 discriminator 1 view .LVU94
 369              	.LBB46:
 370              	.LBI46:
 191:Middlewares/Third_Party/FreeRTOS/Source/portable/GCC/ARM_CM3/portmacro.h **** {
 371              		.loc 2 191 30 view .LVU95
 372              	.LBB47:
 193:Middlewares/Third_Party/FreeRTOS/Source/portable/GCC/ARM_CM3/portmacro.h **** 
 373              		.loc 2 193 1 view .LVU96
 374              		.loc 2 195 2 view .LVU97
 375              		.syntax unified
 376              	@ 195 "Middlewares/Third_Party/FreeRTOS/Source/portable/GCC/ARM_CM3/portmacro.h" 1
 377 003a 4FF05003 			mov r3, #80												
 378 003e 83F31188 		msr basepri, r3											
 379 0042 BFF36F8F 		isb														
 380 0046 BFF34F8F 		dsb														
 381              	
 382              	@ 0 "" 2
 383              	.LVL21:
 384              		.thumb
 385              		.syntax unified
 386              	.L23:
 387              		.loc 2 195 2 is_stmt 0 view .LVU98
 388              	.LBE47:
 389              	.LBE46:
 307:Middlewares/Third_Party/FreeRTOS/Source/event_groups.c **** 	#if ( ( INCLUDE_xTaskGetSchedulerState == 1 ) || ( configUSE_TIMERS == 1 ) )
 390              		.loc 1 307 2 is_stmt 1 discriminator 3 view .LVU99
 307:Middlewares/Third_Party/FreeRTOS/Source/event_groups.c **** 	#if ( ( INCLUDE_xTaskGetSchedulerState == 1 ) || ( configUSE_TIMERS == 1 ) )
 391              		.loc 1 307 2 discriminator 3 view .LVU100
 392 004a FEE7     		b	.L23
 393              	.LVL22:
 394              	.L22:
 307:Middlewares/Third_Party/FreeRTOS/Source/event_groups.c **** 	#if ( ( INCLUDE_xTaskGetSchedulerState == 1 ) || ( configUSE_TIMERS == 1 ) )
 395              		.loc 1 307 38 discriminator 2 view .LVU101
 310:Middlewares/Third_Party/FreeRTOS/Source/event_groups.c **** 	}
 396              		.loc 1 310 3 view .LVU102
 397 004c FFF7FEFF 		bl	xTaskGetSchedulerState
 398              	.LVL23:
 310:Middlewares/Third_Party/FreeRTOS/Source/event_groups.c **** 	}
 399              		.loc 1 310 3 is_stmt 0 discriminator 1 view .LVU103
 400 0050 50B9     		cbnz	r0, .L24
 310:Middlewares/Third_Party/FreeRTOS/Source/event_groups.c **** 	}
 401              		.loc 1 310 3 discriminator 2 view .LVU104
 402 0052 069B     		ldr	r3, [sp, #24]
 403 0054 43B1     		cbz	r3, .L24
 310:Middlewares/Third_Party/FreeRTOS/Source/event_groups.c **** 	}
 404              		.loc 1 310 3 is_stmt 1 discriminator 7 view .LVU105
 405              	.LBB48:
 406              	.LBI48:
 191:Middlewares/Third_Party/FreeRTOS/Source/portable/GCC/ARM_CM3/portmacro.h **** {
 407              		.loc 2 191 30 view .LVU106
 408              	.LBB49:
ARM GAS  /tmp/cc9c6oGu.s 			page 25


 193:Middlewares/Third_Party/FreeRTOS/Source/portable/GCC/ARM_CM3/portmacro.h **** 
 409              		.loc 2 193 1 view .LVU107
 410              		.loc 2 195 2 view .LVU108
 411              		.syntax unified
 412              	@ 195 "Middlewares/Third_Party/FreeRTOS/Source/portable/GCC/ARM_CM3/portmacro.h" 1
 413 0056 4FF05003 			mov r3, #80												
 414 005a 83F31188 		msr basepri, r3											
 415 005e BFF36F8F 		isb														
 416 0062 BFF34F8F 		dsb														
 417              	
 418              	@ 0 "" 2
 419              		.thumb
 420              		.syntax unified
 421              	.L25:
 422              	.LBE49:
 423              	.LBE48:
 310:Middlewares/Third_Party/FreeRTOS/Source/event_groups.c **** 	}
 424              		.loc 1 310 3 discriminator 9 view .LVU109
 310:Middlewares/Third_Party/FreeRTOS/Source/event_groups.c **** 	}
 425              		.loc 1 310 3 discriminator 9 view .LVU110
 426 0066 FEE7     		b	.L25
 427              	.L24:
 310:Middlewares/Third_Party/FreeRTOS/Source/event_groups.c **** 	}
 428              		.loc 1 310 104 discriminator 8 view .LVU111
 314:Middlewares/Third_Party/FreeRTOS/Source/event_groups.c **** 	{
 429              		.loc 1 314 2 view .LVU112
 430 0068 FFF7FEFF 		bl	vTaskSuspendAll
 431              	.LVL24:
 432              	.LBB50:
 316:Middlewares/Third_Party/FreeRTOS/Source/event_groups.c **** 
 433              		.loc 1 316 3 view .LVU113
 316:Middlewares/Third_Party/FreeRTOS/Source/event_groups.c **** 
 434              		.loc 1 316 21 is_stmt 0 view .LVU114
 435 006c D7F80080 		ldr	r8, [r7]
 436              	.LVL25:
 319:Middlewares/Third_Party/FreeRTOS/Source/event_groups.c **** 
 437              		.loc 1 319 3 is_stmt 1 view .LVU115
 319:Middlewares/Third_Party/FreeRTOS/Source/event_groups.c **** 
 438              		.loc 1 319 23 is_stmt 0 view .LVU116
 439 0070 2A46     		mov	r2, r5
 440 0072 2146     		mov	r1, r4
 441 0074 4046     		mov	r0, r8
 442 0076 FFF7FEFF 		bl	prvTestWaitCondition
 443              	.LVL26:
 321:Middlewares/Third_Party/FreeRTOS/Source/event_groups.c **** 		{
 444              		.loc 1 321 3 is_stmt 1 view .LVU117
 321:Middlewares/Third_Party/FreeRTOS/Source/event_groups.c **** 		{
 445              		.loc 1 321 5 is_stmt 0 view .LVU118
 446 007a F8B1     		cbz	r0, .L26
 325:Middlewares/Third_Party/FreeRTOS/Source/event_groups.c **** 			xTicksToWait = ( TickType_t ) 0;
 447              		.loc 1 325 4 is_stmt 1 view .LVU119
 448              	.LVL27:
 326:Middlewares/Third_Party/FreeRTOS/Source/event_groups.c **** 
 449              		.loc 1 326 4 view .LVU120
 329:Middlewares/Third_Party/FreeRTOS/Source/event_groups.c **** 			{
 450              		.loc 1 329 4 view .LVU121
 329:Middlewares/Third_Party/FreeRTOS/Source/event_groups.c **** 			{
ARM GAS  /tmp/cc9c6oGu.s 			page 26


 451              		.loc 1 329 6 is_stmt 0 view .LVU122
 452 007c 8EB3     		cbz	r6, .L34
 331:Middlewares/Third_Party/FreeRTOS/Source/event_groups.c **** 			}
 453              		.loc 1 331 5 is_stmt 1 view .LVU123
 331:Middlewares/Third_Party/FreeRTOS/Source/event_groups.c **** 			}
 454              		.loc 1 331 30 is_stmt 0 view .LVU124
 455 007e 28EA0403 		bic	r3, r8, r4
 456 0082 3B60     		str	r3, [r7]
 326:Middlewares/Third_Party/FreeRTOS/Source/event_groups.c **** 
 457              		.loc 1 326 17 view .LVU125
 458 0084 0023     		movs	r3, #0
 459 0086 0693     		str	r3, [sp, #24]
 460              	.LVL28:
 461              	.L27:
 379:Middlewares/Third_Party/FreeRTOS/Source/event_groups.c **** 		}
 462              		.loc 1 379 68 is_stmt 1 view .LVU126
 463              	.LBE50:
 382:Middlewares/Third_Party/FreeRTOS/Source/event_groups.c **** 
 464              		.loc 1 382 2 view .LVU127
 382:Middlewares/Third_Party/FreeRTOS/Source/event_groups.c **** 
 465              		.loc 1 382 20 is_stmt 0 view .LVU128
 466 0088 FFF7FEFF 		bl	xTaskResumeAll
 467              	.LVL29:
 384:Middlewares/Third_Party/FreeRTOS/Source/event_groups.c **** 	{
 468              		.loc 1 384 2 is_stmt 1 view .LVU129
 384:Middlewares/Third_Party/FreeRTOS/Source/event_groups.c **** 	{
 469              		.loc 1 384 4 is_stmt 0 view .LVU130
 470 008c 069B     		ldr	r3, [sp, #24]
 471 008e 93B1     		cbz	r3, .L17
 386:Middlewares/Third_Party/FreeRTOS/Source/event_groups.c **** 		{
 472              		.loc 1 386 3 is_stmt 1 view .LVU131
 386:Middlewares/Third_Party/FreeRTOS/Source/event_groups.c **** 		{
 473              		.loc 1 386 5 is_stmt 0 view .LVU132
 474 0090 48B9     		cbnz	r0, .L31
 388:Middlewares/Third_Party/FreeRTOS/Source/event_groups.c **** 		}
 475              		.loc 1 388 4 is_stmt 1 view .LVU133
 476 0092 4FF0E023 		mov	r3, #-536813568
 477 0096 4FF08052 		mov	r2, #268435456
 478 009a C3F8042D 		str	r2, [r3, #3332]
 479              	.LVL30:
 388:Middlewares/Third_Party/FreeRTOS/Source/event_groups.c **** 		}
 480              		.loc 1 388 4 view .LVU134
 481              		.syntax unified
 482              	@ 388 "Middlewares/Third_Party/FreeRTOS/Source/event_groups.c" 1
 483 009e BFF34F8F 		dsb
 484              	@ 0 "" 2
 388:Middlewares/Third_Party/FreeRTOS/Source/event_groups.c **** 		}
 485              		.loc 1 388 4 view .LVU135
 486              	@ 388 "Middlewares/Third_Party/FreeRTOS/Source/event_groups.c" 1
 487 00a2 BFF36F8F 		isb
 488              	@ 0 "" 2
 388:Middlewares/Third_Party/FreeRTOS/Source/event_groups.c **** 		}
 489              		.loc 1 388 26 view .LVU136
 490              		.thumb
 491              		.syntax unified
 492              	.L31:
 392:Middlewares/Third_Party/FreeRTOS/Source/event_groups.c **** 		}
ARM GAS  /tmp/cc9c6oGu.s 			page 27


 493              		.loc 1 392 28 view .LVU137
 399:Middlewares/Third_Party/FreeRTOS/Source/event_groups.c **** 
 494              		.loc 1 399 3 view .LVU138
 399:Middlewares/Third_Party/FreeRTOS/Source/event_groups.c **** 
 495              		.loc 1 399 14 is_stmt 0 view .LVU139
 496 00a6 FFF7FEFF 		bl	uxTaskResetEventItemValue
 497              	.LVL31:
 399:Middlewares/Third_Party/FreeRTOS/Source/event_groups.c **** 
 498              		.loc 1 399 14 view .LVU140
 499 00aa 8046     		mov	r8, r0
 500              	.LVL32:
 401:Middlewares/Third_Party/FreeRTOS/Source/event_groups.c **** 		{
 501              		.loc 1 401 3 is_stmt 1 view .LVU141
 401:Middlewares/Third_Party/FreeRTOS/Source/event_groups.c **** 		{
 502              		.loc 1 401 5 is_stmt 0 view .LVU142
 503 00ac 10F0007F 		tst	r0, #33554432
 504 00b0 1AD0     		beq	.L39
 505              	.LVL33:
 506              	.L32:
 432:Middlewares/Third_Party/FreeRTOS/Source/event_groups.c **** 
 507              		.loc 1 432 3 is_stmt 1 view .LVU143
 435:Middlewares/Third_Party/FreeRTOS/Source/event_groups.c **** 	}
 508              		.loc 1 435 3 view .LVU144
 435:Middlewares/Third_Party/FreeRTOS/Source/event_groups.c **** 	}
 509              		.loc 1 435 12 is_stmt 0 view .LVU145
 510 00b2 28F07F48 		bic	r8, r8, #-16777216
 511              	.LVL34:
 437:Middlewares/Third_Party/FreeRTOS/Source/event_groups.c **** 
 512              		.loc 1 437 2 is_stmt 1 view .LVU146
 440:Middlewares/Third_Party/FreeRTOS/Source/event_groups.c **** 
 513              		.loc 1 440 2 view .LVU147
 442:Middlewares/Third_Party/FreeRTOS/Source/event_groups.c **** }
 514              		.loc 1 442 2 view .LVU148
 515              	.L17:
 443:Middlewares/Third_Party/FreeRTOS/Source/event_groups.c **** /*-----------------------------------------------------------*/
 516              		.loc 1 443 1 is_stmt 0 view .LVU149
 517 00b6 4046     		mov	r0, r8
 518 00b8 BDE8F081 		pop	{r4, r5, r6, r7, r8, pc}
 519              	.LVL35:
 520              	.L26:
 521              	.LBB51:
 338:Middlewares/Third_Party/FreeRTOS/Source/event_groups.c **** 		{
 522              		.loc 1 338 8 is_stmt 1 view .LVU150
 338:Middlewares/Third_Party/FreeRTOS/Source/event_groups.c **** 		{
 523              		.loc 1 338 10 is_stmt 0 view .LVU151
 524 00bc 069B     		ldr	r3, [sp, #24]
 525 00be 002B     		cmp	r3, #0
 526 00c0 E2D0     		beq	.L27
 351:Middlewares/Third_Party/FreeRTOS/Source/event_groups.c **** 			{
 527              		.loc 1 351 4 is_stmt 1 view .LVU152
 351:Middlewares/Third_Party/FreeRTOS/Source/event_groups.c **** 			{
 528              		.loc 1 351 6 is_stmt 0 view .LVU153
 529 00c2 5EB9     		cbnz	r6, .L35
 530              	.LBE51:
 299:Middlewares/Third_Party/FreeRTOS/Source/event_groups.c **** BaseType_t xWaitConditionMet, xAlreadyYielded;
 531              		.loc 1 299 23 view .LVU154
 532 00c4 0021     		movs	r1, #0
ARM GAS  /tmp/cc9c6oGu.s 			page 28


 533              	.L28:
 534              	.LVL36:
 535              	.LBB52:
 357:Middlewares/Third_Party/FreeRTOS/Source/event_groups.c **** 			}
 536              		.loc 1 357 29 is_stmt 1 view .LVU155
 360:Middlewares/Third_Party/FreeRTOS/Source/event_groups.c **** 			{
 537              		.loc 1 360 4 view .LVU156
 360:Middlewares/Third_Party/FreeRTOS/Source/event_groups.c **** 			{
 538              		.loc 1 360 6 is_stmt 0 view .LVU157
 539 00c6 0DB1     		cbz	r5, .L29
 362:Middlewares/Third_Party/FreeRTOS/Source/event_groups.c **** 			}
 540              		.loc 1 362 5 is_stmt 1 view .LVU158
 362:Middlewares/Third_Party/FreeRTOS/Source/event_groups.c **** 			}
 541              		.loc 1 362 19 is_stmt 0 view .LVU159
 542 00c8 41F08061 		orr	r1, r1, #67108864
 543              	.LVL37:
 544              	.L29:
 366:Middlewares/Third_Party/FreeRTOS/Source/event_groups.c **** 			}
 545              		.loc 1 366 29 is_stmt 1 view .LVU160
 372:Middlewares/Third_Party/FreeRTOS/Source/event_groups.c **** 
 546              		.loc 1 372 4 view .LVU161
 547 00cc 069A     		ldr	r2, [sp, #24]
 548 00ce 2143     		orrs	r1, r1, r4
 549              	.LVL38:
 372:Middlewares/Third_Party/FreeRTOS/Source/event_groups.c **** 
 550              		.loc 1 372 4 is_stmt 0 view .LVU162
 551 00d0 381D     		adds	r0, r7, #4
 552              	.LVL39:
 372:Middlewares/Third_Party/FreeRTOS/Source/event_groups.c **** 
 553              		.loc 1 372 4 view .LVU163
 554 00d2 FFF7FEFF 		bl	vTaskPlaceOnUnorderedEventList
 555              	.LVL40:
 377:Middlewares/Third_Party/FreeRTOS/Source/event_groups.c **** 
 556              		.loc 1 377 4 is_stmt 1 view .LVU164
 377:Middlewares/Third_Party/FreeRTOS/Source/event_groups.c **** 
 557              		.loc 1 377 13 is_stmt 0 view .LVU165
 558 00d6 4FF00008 		mov	r8, #0
 559              	.LVL41:
 377:Middlewares/Third_Party/FreeRTOS/Source/event_groups.c **** 
 560              		.loc 1 377 13 view .LVU166
 561 00da D5E7     		b	.L27
 562              	.LVL42:
 563              	.L35:
 353:Middlewares/Third_Party/FreeRTOS/Source/event_groups.c **** 			}
 564              		.loc 1 353 19 view .LVU167
 565 00dc 4FF08071 		mov	r1, #16777216
 566 00e0 F1E7     		b	.L28
 567              	.LVL43:
 568              	.L34:
 326:Middlewares/Third_Party/FreeRTOS/Source/event_groups.c **** 
 569              		.loc 1 326 17 view .LVU168
 570 00e2 0023     		movs	r3, #0
 571 00e4 0693     		str	r3, [sp, #24]
 572 00e6 CFE7     		b	.L27
 573              	.LVL44:
 574              	.L39:
 326:Middlewares/Third_Party/FreeRTOS/Source/event_groups.c **** 
ARM GAS  /tmp/cc9c6oGu.s 			page 29


 575              		.loc 1 326 17 view .LVU169
 576              	.LBE52:
 403:Middlewares/Third_Party/FreeRTOS/Source/event_groups.c **** 			{
 577              		.loc 1 403 4 is_stmt 1 view .LVU170
 578 00e8 FFF7FEFF 		bl	vPortEnterCritical
 579              	.LVL45:
 406:Middlewares/Third_Party/FreeRTOS/Source/event_groups.c **** 
 580              		.loc 1 406 5 view .LVU171
 406:Middlewares/Third_Party/FreeRTOS/Source/event_groups.c **** 
 581              		.loc 1 406 14 is_stmt 0 view .LVU172
 582 00ec D7F80080 		ldr	r8, [r7]
 583              	.LVL46:
 410:Middlewares/Third_Party/FreeRTOS/Source/event_groups.c **** 				{
 584              		.loc 1 410 5 is_stmt 1 view .LVU173
 410:Middlewares/Third_Party/FreeRTOS/Source/event_groups.c **** 				{
 585              		.loc 1 410 9 is_stmt 0 view .LVU174
 586 00f0 2A46     		mov	r2, r5
 587 00f2 2146     		mov	r1, r4
 588 00f4 4046     		mov	r0, r8
 589 00f6 FFF7FEFF 		bl	prvTestWaitCondition
 590              	.LVL47:
 410:Middlewares/Third_Party/FreeRTOS/Source/event_groups.c **** 				{
 591              		.loc 1 410 7 discriminator 1 view .LVU175
 592 00fa 18B1     		cbz	r0, .L33
 412:Middlewares/Third_Party/FreeRTOS/Source/event_groups.c **** 					{
 593              		.loc 1 412 6 is_stmt 1 view .LVU176
 412:Middlewares/Third_Party/FreeRTOS/Source/event_groups.c **** 					{
 594              		.loc 1 412 8 is_stmt 0 view .LVU177
 595 00fc 16B1     		cbz	r6, .L33
 414:Middlewares/Third_Party/FreeRTOS/Source/event_groups.c **** 					}
 596              		.loc 1 414 7 is_stmt 1 view .LVU178
 414:Middlewares/Third_Party/FreeRTOS/Source/event_groups.c **** 					}
 597              		.loc 1 414 32 is_stmt 0 view .LVU179
 598 00fe 28EA0404 		bic	r4, r8, r4
 599              	.LVL48:
 414:Middlewares/Third_Party/FreeRTOS/Source/event_groups.c **** 					}
 600              		.loc 1 414 32 view .LVU180
 601 0102 3C60     		str	r4, [r7]
 602              	.L33:
 423:Middlewares/Third_Party/FreeRTOS/Source/event_groups.c **** 				}
 603              		.loc 1 423 30 is_stmt 1 view .LVU181
 425:Middlewares/Third_Party/FreeRTOS/Source/event_groups.c **** 			}
 604              		.loc 1 425 5 view .LVU182
 605              	.LVL49:
 427:Middlewares/Third_Party/FreeRTOS/Source/event_groups.c **** 		}
 606              		.loc 1 427 4 view .LVU183
 607 0104 FFF7FEFF 		bl	vPortExitCritical
 608              	.LVL50:
 609 0108 D3E7     		b	.L32
 610              		.cfi_endproc
 611              	.LFE7:
 613              		.section	.text.xEventGroupClearBits,"ax",%progbits
 614              		.align	1
 615              		.global	xEventGroupClearBits
 616              		.syntax unified
 617              		.thumb
 618              		.thumb_func
ARM GAS  /tmp/cc9c6oGu.s 			page 30


 620              	xEventGroupClearBits:
 621              	.LVL51:
 622              	.LFB8:
 447:Middlewares/Third_Party/FreeRTOS/Source/event_groups.c **** EventGroup_t *pxEventBits = ( EventGroup_t * ) xEventGroup;
 623              		.loc 1 447 1 view -0
 624              		.cfi_startproc
 625              		@ args = 0, pretend = 0, frame = 0
 626              		@ frame_needed = 0, uses_anonymous_args = 0
 448:Middlewares/Third_Party/FreeRTOS/Source/event_groups.c **** EventBits_t uxReturn;
 627              		.loc 1 448 1 view .LVU185
 449:Middlewares/Third_Party/FreeRTOS/Source/event_groups.c **** 
 628              		.loc 1 449 1 view .LVU186
 453:Middlewares/Third_Party/FreeRTOS/Source/event_groups.c **** 	configASSERT( ( uxBitsToClear & eventEVENT_BITS_CONTROL_BYTES ) == 0 );
 629              		.loc 1 453 2 view .LVU187
 630 0000 70B1     		cbz	r0, .L47
 447:Middlewares/Third_Party/FreeRTOS/Source/event_groups.c **** EventGroup_t *pxEventBits = ( EventGroup_t * ) xEventGroup;
 631              		.loc 1 447 1 is_stmt 0 view .LVU188
 632 0002 70B5     		push	{r4, r5, r6, lr}
 633              	.LCFI9:
 634              		.cfi_def_cfa_offset 16
 635              		.cfi_offset 4, -16
 636              		.cfi_offset 5, -12
 637              		.cfi_offset 6, -8
 638              		.cfi_offset 14, -4
 639 0004 0C46     		mov	r4, r1
 640 0006 0546     		mov	r5, r0
 453:Middlewares/Third_Party/FreeRTOS/Source/event_groups.c **** 	configASSERT( ( uxBitsToClear & eventEVENT_BITS_CONTROL_BYTES ) == 0 );
 641              		.loc 1 453 29 is_stmt 1 discriminator 2 view .LVU189
 454:Middlewares/Third_Party/FreeRTOS/Source/event_groups.c **** 
 642              		.loc 1 454 2 view .LVU190
 643 0008 B1F1807F 		cmp	r1, #16777216
 644 000c 11D3     		bcc	.L43
 454:Middlewares/Third_Party/FreeRTOS/Source/event_groups.c **** 
 645              		.loc 1 454 2 discriminator 1 view .LVU191
 646              	.LBB53:
 647              	.LBI53:
 191:Middlewares/Third_Party/FreeRTOS/Source/portable/GCC/ARM_CM3/portmacro.h **** {
 648              		.loc 2 191 30 view .LVU192
 649              	.LBB54:
 193:Middlewares/Third_Party/FreeRTOS/Source/portable/GCC/ARM_CM3/portmacro.h **** 
 650              		.loc 2 193 1 view .LVU193
 651              		.loc 2 195 2 view .LVU194
 652              		.syntax unified
 653              	@ 195 "Middlewares/Third_Party/FreeRTOS/Source/portable/GCC/ARM_CM3/portmacro.h" 1
 654 000e 4FF05003 			mov r3, #80												
 655 0012 83F31188 		msr basepri, r3											
 656 0016 BFF36F8F 		isb														
 657 001a BFF34F8F 		dsb														
 658              	
 659              	@ 0 "" 2
 660              		.thumb
 661              		.syntax unified
 662              	.L44:
 663              	.LBE54:
 664              	.LBE53:
 454:Middlewares/Third_Party/FreeRTOS/Source/event_groups.c **** 
 665              		.loc 1 454 2 discriminator 3 view .LVU195
ARM GAS  /tmp/cc9c6oGu.s 			page 31


 454:Middlewares/Third_Party/FreeRTOS/Source/event_groups.c **** 
 666              		.loc 1 454 2 discriminator 3 view .LVU196
 667 001e FEE7     		b	.L44
 668              	.L47:
 669              	.LCFI10:
 670              		.cfi_def_cfa_offset 0
 671              		.cfi_restore 4
 672              		.cfi_restore 5
 673              		.cfi_restore 6
 674              		.cfi_restore 14
 453:Middlewares/Third_Party/FreeRTOS/Source/event_groups.c **** 	configASSERT( ( uxBitsToClear & eventEVENT_BITS_CONTROL_BYTES ) == 0 );
 675              		.loc 1 453 2 discriminator 1 view .LVU197
 676              	.LBB55:
 677              	.LBI55:
 191:Middlewares/Third_Party/FreeRTOS/Source/portable/GCC/ARM_CM3/portmacro.h **** {
 678              		.loc 2 191 30 view .LVU198
 679              	.LBB56:
 193:Middlewares/Third_Party/FreeRTOS/Source/portable/GCC/ARM_CM3/portmacro.h **** 
 680              		.loc 2 193 1 view .LVU199
 681              		.loc 2 195 2 view .LVU200
 682              		.syntax unified
 683              	@ 195 "Middlewares/Third_Party/FreeRTOS/Source/portable/GCC/ARM_CM3/portmacro.h" 1
 684 0020 4FF05003 			mov r3, #80												
 685 0024 83F31188 		msr basepri, r3											
 686 0028 BFF36F8F 		isb														
 687 002c BFF34F8F 		dsb														
 688              	
 689              	@ 0 "" 2
 690              		.thumb
 691              		.syntax unified
 692              	.L42:
 693              	.LBE56:
 694              	.LBE55:
 453:Middlewares/Third_Party/FreeRTOS/Source/event_groups.c **** 	configASSERT( ( uxBitsToClear & eventEVENT_BITS_CONTROL_BYTES ) == 0 );
 695              		.loc 1 453 2 discriminator 3 view .LVU201
 453:Middlewares/Third_Party/FreeRTOS/Source/event_groups.c **** 	configASSERT( ( uxBitsToClear & eventEVENT_BITS_CONTROL_BYTES ) == 0 );
 696              		.loc 1 453 2 discriminator 3 view .LVU202
 697 0030 FEE7     		b	.L42
 698              	.L43:
 699              	.LCFI11:
 700              		.cfi_def_cfa_offset 16
 701              		.cfi_offset 4, -16
 702              		.cfi_offset 5, -12
 703              		.cfi_offset 6, -8
 704              		.cfi_offset 14, -4
 454:Middlewares/Third_Party/FreeRTOS/Source/event_groups.c **** 
 705              		.loc 1 454 72 discriminator 2 view .LVU203
 456:Middlewares/Third_Party/FreeRTOS/Source/event_groups.c **** 	{
 706              		.loc 1 456 2 view .LVU204
 707 0032 FFF7FEFF 		bl	vPortEnterCritical
 708              	.LVL52:
 458:Middlewares/Third_Party/FreeRTOS/Source/event_groups.c **** 
 709              		.loc 1 458 60 view .LVU205
 462:Middlewares/Third_Party/FreeRTOS/Source/event_groups.c **** 
 710              		.loc 1 462 3 view .LVU206
 462:Middlewares/Third_Party/FreeRTOS/Source/event_groups.c **** 
 711              		.loc 1 462 12 is_stmt 0 view .LVU207
ARM GAS  /tmp/cc9c6oGu.s 			page 32


 712 0036 2E68     		ldr	r6, [r5]
 713              	.LVL53:
 465:Middlewares/Third_Party/FreeRTOS/Source/event_groups.c **** 	}
 714              		.loc 1 465 3 is_stmt 1 view .LVU208
 465:Middlewares/Third_Party/FreeRTOS/Source/event_groups.c **** 	}
 715              		.loc 1 465 28 is_stmt 0 view .LVU209
 716 0038 26EA0404 		bic	r4, r6, r4
 717              	.LVL54:
 465:Middlewares/Third_Party/FreeRTOS/Source/event_groups.c **** 	}
 718              		.loc 1 465 28 view .LVU210
 719 003c 2C60     		str	r4, [r5]
 467:Middlewares/Third_Party/FreeRTOS/Source/event_groups.c **** 
 720              		.loc 1 467 2 is_stmt 1 view .LVU211
 721 003e FFF7FEFF 		bl	vPortExitCritical
 722              	.LVL55:
 469:Middlewares/Third_Party/FreeRTOS/Source/event_groups.c **** }
 723              		.loc 1 469 2 view .LVU212
 470:Middlewares/Third_Party/FreeRTOS/Source/event_groups.c **** /*-----------------------------------------------------------*/
 724              		.loc 1 470 1 is_stmt 0 view .LVU213
 725 0042 3046     		mov	r0, r6
 726 0044 70BD     		pop	{r4, r5, r6, pc}
 470:Middlewares/Third_Party/FreeRTOS/Source/event_groups.c **** /*-----------------------------------------------------------*/
 727              		.loc 1 470 1 view .LVU214
 728              		.cfi_endproc
 729              	.LFE8:
 731              		.section	.text.vEventGroupClearBitsCallback,"ax",%progbits
 732              		.align	1
 733              		.global	vEventGroupClearBitsCallback
 734              		.syntax unified
 735              		.thumb
 736              		.thumb_func
 738              	vEventGroupClearBitsCallback:
 739              	.LVL56:
 740              	.LFB14:
 651:Middlewares/Third_Party/FreeRTOS/Source/event_groups.c **** 	( void ) xEventGroupClearBits( pvEventGroup, ( EventBits_t ) ulBitsToClear );
 741              		.loc 1 651 1 is_stmt 1 view -0
 742              		.cfi_startproc
 743              		@ args = 0, pretend = 0, frame = 0
 744              		@ frame_needed = 0, uses_anonymous_args = 0
 651:Middlewares/Third_Party/FreeRTOS/Source/event_groups.c **** 	( void ) xEventGroupClearBits( pvEventGroup, ( EventBits_t ) ulBitsToClear );
 745              		.loc 1 651 1 is_stmt 0 view .LVU216
 746 0000 08B5     		push	{r3, lr}
 747              	.LCFI12:
 748              		.cfi_def_cfa_offset 8
 749              		.cfi_offset 3, -8
 750              		.cfi_offset 14, -4
 652:Middlewares/Third_Party/FreeRTOS/Source/event_groups.c **** }
 751              		.loc 1 652 2 is_stmt 1 view .LVU217
 652:Middlewares/Third_Party/FreeRTOS/Source/event_groups.c **** }
 752              		.loc 1 652 11 is_stmt 0 view .LVU218
 753 0002 FFF7FEFF 		bl	xEventGroupClearBits
 754              	.LVL57:
 653:Middlewares/Third_Party/FreeRTOS/Source/event_groups.c **** /*-----------------------------------------------------------*/
 755              		.loc 1 653 1 view .LVU219
 756 0006 08BD     		pop	{r3, pc}
 757              		.cfi_endproc
 758              	.LFE14:
ARM GAS  /tmp/cc9c6oGu.s 			page 33


 760              		.section	.text.xEventGroupClearBitsFromISR,"ax",%progbits
 761              		.align	1
 762              		.global	xEventGroupClearBitsFromISR
 763              		.syntax unified
 764              		.thumb
 765              		.thumb_func
 767              	xEventGroupClearBitsFromISR:
 768              	.LVL58:
 769              	.LFB9:
 476:Middlewares/Third_Party/FreeRTOS/Source/event_groups.c **** 		BaseType_t xReturn;
 770              		.loc 1 476 2 is_stmt 1 view -0
 771              		.cfi_startproc
 772              		@ args = 0, pretend = 0, frame = 0
 773              		@ frame_needed = 0, uses_anonymous_args = 0
 476:Middlewares/Third_Party/FreeRTOS/Source/event_groups.c **** 		BaseType_t xReturn;
 774              		.loc 1 476 2 is_stmt 0 view .LVU221
 775 0000 08B5     		push	{r3, lr}
 776              	.LCFI13:
 777              		.cfi_def_cfa_offset 8
 778              		.cfi_offset 3, -8
 779              		.cfi_offset 14, -4
 780 0002 0A46     		mov	r2, r1
 477:Middlewares/Third_Party/FreeRTOS/Source/event_groups.c **** 
 781              		.loc 1 477 3 is_stmt 1 view .LVU222
 479:Middlewares/Third_Party/FreeRTOS/Source/event_groups.c **** 		xReturn = xTimerPendFunctionCallFromISR( vEventGroupClearBitsCallback, ( void * ) xEventGroup, ( 
 782              		.loc 1 479 69 view .LVU223
 480:Middlewares/Third_Party/FreeRTOS/Source/event_groups.c **** 
 783              		.loc 1 480 3 view .LVU224
 480:Middlewares/Third_Party/FreeRTOS/Source/event_groups.c **** 
 784              		.loc 1 480 13 is_stmt 0 view .LVU225
 785 0004 0023     		movs	r3, #0
 786 0006 0146     		mov	r1, r0
 787              	.LVL59:
 480:Middlewares/Third_Party/FreeRTOS/Source/event_groups.c **** 
 788              		.loc 1 480 13 view .LVU226
 789 0008 0148     		ldr	r0, .L52
 790              	.LVL60:
 480:Middlewares/Third_Party/FreeRTOS/Source/event_groups.c **** 
 791              		.loc 1 480 13 view .LVU227
 792 000a FFF7FEFF 		bl	xTimerPendFunctionCallFromISR
 793              	.LVL61:
 482:Middlewares/Third_Party/FreeRTOS/Source/event_groups.c **** 	}
 794              		.loc 1 482 3 is_stmt 1 view .LVU228
 483:Middlewares/Third_Party/FreeRTOS/Source/event_groups.c **** 
 795              		.loc 1 483 2 is_stmt 0 view .LVU229
 796 000e 08BD     		pop	{r3, pc}
 797              	.L53:
 798              		.align	2
 799              	.L52:
 800 0010 00000000 		.word	vEventGroupClearBitsCallback
 801              		.cfi_endproc
 802              	.LFE9:
 804              		.section	.text.xEventGroupGetBitsFromISR,"ax",%progbits
 805              		.align	1
 806              		.global	xEventGroupGetBitsFromISR
 807              		.syntax unified
 808              		.thumb
ARM GAS  /tmp/cc9c6oGu.s 			page 34


 809              		.thumb_func
 811              	xEventGroupGetBitsFromISR:
 812              	.LVL62:
 813              	.LFB10:
 489:Middlewares/Third_Party/FreeRTOS/Source/event_groups.c **** UBaseType_t uxSavedInterruptStatus;
 814              		.loc 1 489 1 is_stmt 1 view -0
 815              		.cfi_startproc
 816              		@ args = 0, pretend = 0, frame = 0
 817              		@ frame_needed = 0, uses_anonymous_args = 0
 818              		@ link register save eliminated.
 490:Middlewares/Third_Party/FreeRTOS/Source/event_groups.c **** EventGroup_t *pxEventBits = ( EventGroup_t * ) xEventGroup;
 819              		.loc 1 490 1 view .LVU231
 491:Middlewares/Third_Party/FreeRTOS/Source/event_groups.c **** EventBits_t uxReturn;
 820              		.loc 1 491 1 view .LVU232
 492:Middlewares/Third_Party/FreeRTOS/Source/event_groups.c **** 
 821              		.loc 1 492 1 view .LVU233
 494:Middlewares/Third_Party/FreeRTOS/Source/event_groups.c **** 	{
 822              		.loc 1 494 2 view .LVU234
 823              	.LBB57:
 824              	.LBI57:
 196:Middlewares/Third_Party/FreeRTOS/Source/portable/GCC/ARM_CM3/portmacro.h **** 	(
 197:Middlewares/Third_Party/FreeRTOS/Source/portable/GCC/ARM_CM3/portmacro.h **** 		"	mov %0, %1												\n" \
 198:Middlewares/Third_Party/FreeRTOS/Source/portable/GCC/ARM_CM3/portmacro.h **** 		"	msr basepri, %0											\n" \
 199:Middlewares/Third_Party/FreeRTOS/Source/portable/GCC/ARM_CM3/portmacro.h **** 		"	isb														\n" \
 200:Middlewares/Third_Party/FreeRTOS/Source/portable/GCC/ARM_CM3/portmacro.h **** 		"	dsb														\n" \
 201:Middlewares/Third_Party/FreeRTOS/Source/portable/GCC/ARM_CM3/portmacro.h **** 		:"=r" (ulNewBASEPRI) : "i" ( configMAX_SYSCALL_INTERRUPT_PRIORITY ) : "memory"
 202:Middlewares/Third_Party/FreeRTOS/Source/portable/GCC/ARM_CM3/portmacro.h **** 	);
 203:Middlewares/Third_Party/FreeRTOS/Source/portable/GCC/ARM_CM3/portmacro.h **** }
 204:Middlewares/Third_Party/FreeRTOS/Source/portable/GCC/ARM_CM3/portmacro.h **** 
 205:Middlewares/Third_Party/FreeRTOS/Source/portable/GCC/ARM_CM3/portmacro.h **** /*-----------------------------------------------------------*/
 206:Middlewares/Third_Party/FreeRTOS/Source/portable/GCC/ARM_CM3/portmacro.h **** 
 207:Middlewares/Third_Party/FreeRTOS/Source/portable/GCC/ARM_CM3/portmacro.h **** portFORCE_INLINE static uint32_t ulPortRaiseBASEPRI( void )
 825              		.loc 2 207 34 view .LVU235
 826              	.LBB58:
 208:Middlewares/Third_Party/FreeRTOS/Source/portable/GCC/ARM_CM3/portmacro.h **** {
 209:Middlewares/Third_Party/FreeRTOS/Source/portable/GCC/ARM_CM3/portmacro.h **** uint32_t ulOriginalBASEPRI, ulNewBASEPRI;
 827              		.loc 2 209 1 view .LVU236
 210:Middlewares/Third_Party/FreeRTOS/Source/portable/GCC/ARM_CM3/portmacro.h **** 
 211:Middlewares/Third_Party/FreeRTOS/Source/portable/GCC/ARM_CM3/portmacro.h **** 	__asm volatile
 828              		.loc 2 211 2 view .LVU237
 829              		.syntax unified
 830              	@ 211 "Middlewares/Third_Party/FreeRTOS/Source/portable/GCC/ARM_CM3/portmacro.h" 1
 831 0000 EFF31183 			mrs r3, basepri											
 832 0004 4FF05002 		mov r2, #80												
 833 0008 82F31188 		msr basepri, r2											
 834 000c BFF36F8F 		isb														
 835 0010 BFF34F8F 		dsb														
 836              	
 837              	@ 0 "" 2
 838              	.LVL63:
 212:Middlewares/Third_Party/FreeRTOS/Source/portable/GCC/ARM_CM3/portmacro.h **** 	(
 213:Middlewares/Third_Party/FreeRTOS/Source/portable/GCC/ARM_CM3/portmacro.h **** 		"	mrs %0, basepri											\n" \
 214:Middlewares/Third_Party/FreeRTOS/Source/portable/GCC/ARM_CM3/portmacro.h **** 		"	mov %1, %2												\n" \
 215:Middlewares/Third_Party/FreeRTOS/Source/portable/GCC/ARM_CM3/portmacro.h **** 		"	msr basepri, %1											\n" \
 216:Middlewares/Third_Party/FreeRTOS/Source/portable/GCC/ARM_CM3/portmacro.h **** 		"	isb														\n" \
 217:Middlewares/Third_Party/FreeRTOS/Source/portable/GCC/ARM_CM3/portmacro.h **** 		"	dsb														\n" \
 218:Middlewares/Third_Party/FreeRTOS/Source/portable/GCC/ARM_CM3/portmacro.h **** 		:"=r" (ulOriginalBASEPRI), "=r" (ulNewBASEPRI) : "i" ( configMAX_SYSCALL_INTERRUPT_PRIORITY ) : "
ARM GAS  /tmp/cc9c6oGu.s 			page 35


 219:Middlewares/Third_Party/FreeRTOS/Source/portable/GCC/ARM_CM3/portmacro.h **** 	);
 220:Middlewares/Third_Party/FreeRTOS/Source/portable/GCC/ARM_CM3/portmacro.h **** 
 221:Middlewares/Third_Party/FreeRTOS/Source/portable/GCC/ARM_CM3/portmacro.h **** 	/* This return will not be reached but is necessary to prevent compiler
 222:Middlewares/Third_Party/FreeRTOS/Source/portable/GCC/ARM_CM3/portmacro.h **** 	warnings. */
 223:Middlewares/Third_Party/FreeRTOS/Source/portable/GCC/ARM_CM3/portmacro.h **** 	return ulOriginalBASEPRI;
 839              		.loc 2 223 2 view .LVU238
 840              		.loc 2 223 2 is_stmt 0 view .LVU239
 841              		.thumb
 842              		.syntax unified
 843              	.LBE58:
 844              	.LBE57:
 496:Middlewares/Third_Party/FreeRTOS/Source/event_groups.c **** 	}
 845              		.loc 1 496 3 is_stmt 1 view .LVU240
 496:Middlewares/Third_Party/FreeRTOS/Source/event_groups.c **** 	}
 846              		.loc 1 496 12 is_stmt 0 view .LVU241
 847 0014 0068     		ldr	r0, [r0]
 848              	.LVL64:
 498:Middlewares/Third_Party/FreeRTOS/Source/event_groups.c **** 
 849              		.loc 1 498 2 is_stmt 1 view .LVU242
 850              	.LBB59:
 851              	.LBI59:
 224:Middlewares/Third_Party/FreeRTOS/Source/portable/GCC/ARM_CM3/portmacro.h **** }
 225:Middlewares/Third_Party/FreeRTOS/Source/portable/GCC/ARM_CM3/portmacro.h **** /*-----------------------------------------------------------*/
 226:Middlewares/Third_Party/FreeRTOS/Source/portable/GCC/ARM_CM3/portmacro.h **** 
 227:Middlewares/Third_Party/FreeRTOS/Source/portable/GCC/ARM_CM3/portmacro.h **** portFORCE_INLINE static void vPortSetBASEPRI( uint32_t ulNewMaskValue )
 852              		.loc 2 227 30 view .LVU243
 853              	.LBB60:
 228:Middlewares/Third_Party/FreeRTOS/Source/portable/GCC/ARM_CM3/portmacro.h **** {
 229:Middlewares/Third_Party/FreeRTOS/Source/portable/GCC/ARM_CM3/portmacro.h **** 	__asm volatile
 854              		.loc 2 229 2 view .LVU244
 855              		.syntax unified
 856              	@ 229 "Middlewares/Third_Party/FreeRTOS/Source/portable/GCC/ARM_CM3/portmacro.h" 1
 857 0016 83F31188 			msr basepri, r3	
 858              	@ 0 "" 2
 859              	.LVL65:
 860              		.loc 2 229 2 is_stmt 0 view .LVU245
 861              		.thumb
 862              		.syntax unified
 863              	.LBE60:
 864              	.LBE59:
 500:Middlewares/Third_Party/FreeRTOS/Source/event_groups.c **** }
 865              		.loc 1 500 2 is_stmt 1 view .LVU246
 501:Middlewares/Third_Party/FreeRTOS/Source/event_groups.c **** /*-----------------------------------------------------------*/
 866              		.loc 1 501 1 is_stmt 0 view .LVU247
 867 001a 7047     		bx	lr
 868              		.cfi_endproc
 869              	.LFE10:
 871              		.section	.text.xEventGroupSetBits,"ax",%progbits
 872              		.align	1
 873              		.global	xEventGroupSetBits
 874              		.syntax unified
 875              		.thumb
 876              		.thumb_func
 878              	xEventGroupSetBits:
 879              	.LVL66:
 880              	.LFB11:
 505:Middlewares/Third_Party/FreeRTOS/Source/event_groups.c **** ListItem_t *pxListItem, *pxNext;
ARM GAS  /tmp/cc9c6oGu.s 			page 36


 881              		.loc 1 505 1 is_stmt 1 view -0
 882              		.cfi_startproc
 883              		@ args = 0, pretend = 0, frame = 0
 884              		@ frame_needed = 0, uses_anonymous_args = 0
 505:Middlewares/Third_Party/FreeRTOS/Source/event_groups.c **** ListItem_t *pxListItem, *pxNext;
 885              		.loc 1 505 1 is_stmt 0 view .LVU249
 886 0000 F8B5     		push	{r3, r4, r5, r6, r7, lr}
 887              	.LCFI14:
 888              		.cfi_def_cfa_offset 24
 889              		.cfi_offset 3, -24
 890              		.cfi_offset 4, -20
 891              		.cfi_offset 5, -16
 892              		.cfi_offset 6, -12
 893              		.cfi_offset 7, -8
 894              		.cfi_offset 14, -4
 506:Middlewares/Third_Party/FreeRTOS/Source/event_groups.c **** ListItem_t const *pxListEnd;
 895              		.loc 1 506 1 is_stmt 1 view .LVU250
 507:Middlewares/Third_Party/FreeRTOS/Source/event_groups.c **** List_t *pxList;
 896              		.loc 1 507 1 view .LVU251
 508:Middlewares/Third_Party/FreeRTOS/Source/event_groups.c **** EventBits_t uxBitsToClear = 0, uxBitsWaitedFor, uxControlBits;
 897              		.loc 1 508 1 view .LVU252
 509:Middlewares/Third_Party/FreeRTOS/Source/event_groups.c **** EventGroup_t *pxEventBits = ( EventGroup_t * ) xEventGroup;
 898              		.loc 1 509 1 view .LVU253
 899              	.LVL67:
 510:Middlewares/Third_Party/FreeRTOS/Source/event_groups.c **** BaseType_t xMatchFound = pdFALSE;
 900              		.loc 1 510 1 view .LVU254
 511:Middlewares/Third_Party/FreeRTOS/Source/event_groups.c **** 
 901              		.loc 1 511 1 view .LVU255
 515:Middlewares/Third_Party/FreeRTOS/Source/event_groups.c **** 	configASSERT( ( uxBitsToSet & eventEVENT_BITS_CONTROL_BYTES ) == 0 );
 902              		.loc 1 515 2 view .LVU256
 903 0002 68B1     		cbz	r0, .L67
 904 0004 0D46     		mov	r5, r1
 905 0006 0446     		mov	r4, r0
 515:Middlewares/Third_Party/FreeRTOS/Source/event_groups.c **** 	configASSERT( ( uxBitsToSet & eventEVENT_BITS_CONTROL_BYTES ) == 0 );
 906              		.loc 1 515 29 discriminator 2 view .LVU257
 516:Middlewares/Third_Party/FreeRTOS/Source/event_groups.c **** 
 907              		.loc 1 516 2 view .LVU258
 908 0008 B1F1807F 		cmp	r1, #16777216
 909 000c 11D3     		bcc	.L58
 516:Middlewares/Third_Party/FreeRTOS/Source/event_groups.c **** 
 910              		.loc 1 516 2 discriminator 1 view .LVU259
 911              	.LBB61:
 912              	.LBI61:
 191:Middlewares/Third_Party/FreeRTOS/Source/portable/GCC/ARM_CM3/portmacro.h **** {
 913              		.loc 2 191 30 view .LVU260
 914              	.LBB62:
 193:Middlewares/Third_Party/FreeRTOS/Source/portable/GCC/ARM_CM3/portmacro.h **** 
 915              		.loc 2 193 1 view .LVU261
 195:Middlewares/Third_Party/FreeRTOS/Source/portable/GCC/ARM_CM3/portmacro.h **** 	(
 916              		.loc 2 195 2 view .LVU262
 917              		.syntax unified
 918              	@ 195 "Middlewares/Third_Party/FreeRTOS/Source/portable/GCC/ARM_CM3/portmacro.h" 1
 919 000e 4FF05003 			mov r3, #80												
 920 0012 83F31188 		msr basepri, r3											
 921 0016 BFF36F8F 		isb														
 922 001a BFF34F8F 		dsb														
 923              	
ARM GAS  /tmp/cc9c6oGu.s 			page 37


 924              	@ 0 "" 2
 925              		.thumb
 926              		.syntax unified
 927              	.L59:
 928              	.LBE62:
 929              	.LBE61:
 516:Middlewares/Third_Party/FreeRTOS/Source/event_groups.c **** 
 930              		.loc 1 516 2 discriminator 3 view .LVU263
 516:Middlewares/Third_Party/FreeRTOS/Source/event_groups.c **** 
 931              		.loc 1 516 2 discriminator 3 view .LVU264
 932 001e FEE7     		b	.L59
 933              	.L67:
 515:Middlewares/Third_Party/FreeRTOS/Source/event_groups.c **** 	configASSERT( ( uxBitsToSet & eventEVENT_BITS_CONTROL_BYTES ) == 0 );
 934              		.loc 1 515 2 discriminator 1 view .LVU265
 935              	.LBB63:
 936              	.LBI63:
 191:Middlewares/Third_Party/FreeRTOS/Source/portable/GCC/ARM_CM3/portmacro.h **** {
 937              		.loc 2 191 30 view .LVU266
 938              	.LBB64:
 193:Middlewares/Third_Party/FreeRTOS/Source/portable/GCC/ARM_CM3/portmacro.h **** 
 939              		.loc 2 193 1 view .LVU267
 195:Middlewares/Third_Party/FreeRTOS/Source/portable/GCC/ARM_CM3/portmacro.h **** 	(
 940              		.loc 2 195 2 view .LVU268
 941              		.syntax unified
 942              	@ 195 "Middlewares/Third_Party/FreeRTOS/Source/portable/GCC/ARM_CM3/portmacro.h" 1
 943 0020 4FF05003 			mov r3, #80												
 944 0024 83F31188 		msr basepri, r3											
 945 0028 BFF36F8F 		isb														
 946 002c BFF34F8F 		dsb														
 947              	
 948              	@ 0 "" 2
 949              		.thumb
 950              		.syntax unified
 951              	.L57:
 952              	.LBE64:
 953              	.LBE63:
 515:Middlewares/Third_Party/FreeRTOS/Source/event_groups.c **** 	configASSERT( ( uxBitsToSet & eventEVENT_BITS_CONTROL_BYTES ) == 0 );
 954              		.loc 1 515 2 discriminator 3 view .LVU269
 515:Middlewares/Third_Party/FreeRTOS/Source/event_groups.c **** 	configASSERT( ( uxBitsToSet & eventEVENT_BITS_CONTROL_BYTES ) == 0 );
 955              		.loc 1 515 2 discriminator 3 view .LVU270
 956 0030 FEE7     		b	.L57
 957              	.L58:
 516:Middlewares/Third_Party/FreeRTOS/Source/event_groups.c **** 
 958              		.loc 1 516 70 discriminator 2 view .LVU271
 518:Middlewares/Third_Party/FreeRTOS/Source/event_groups.c **** 	pxListEnd = listGET_END_MARKER( pxList ); /*lint !e826 !e740 The mini list structure is used as th
 959              		.loc 1 518 2 view .LVU272
 960              	.LVL68:
 519:Middlewares/Third_Party/FreeRTOS/Source/event_groups.c **** 	vTaskSuspendAll();
 961              		.loc 1 519 2 view .LVU273
 519:Middlewares/Third_Party/FreeRTOS/Source/event_groups.c **** 	vTaskSuspendAll();
 962              		.loc 1 519 12 is_stmt 0 view .LVU274
 963 0032 00F10C06 		add	r6, r0, #12
 964              	.LVL69:
 520:Middlewares/Third_Party/FreeRTOS/Source/event_groups.c **** 	{
 965              		.loc 1 520 2 is_stmt 1 view .LVU275
 966 0036 FFF7FEFF 		bl	vTaskSuspendAll
 967              	.LVL70:
ARM GAS  /tmp/cc9c6oGu.s 			page 38


 522:Middlewares/Third_Party/FreeRTOS/Source/event_groups.c **** 
 968              		.loc 1 522 56 view .LVU276
 524:Middlewares/Third_Party/FreeRTOS/Source/event_groups.c **** 
 969              		.loc 1 524 3 view .LVU277
 524:Middlewares/Third_Party/FreeRTOS/Source/event_groups.c **** 
 970              		.loc 1 524 14 is_stmt 0 view .LVU278
 971 003a 2069     		ldr	r0, [r4, #16]
 972              	.LVL71:
 527:Middlewares/Third_Party/FreeRTOS/Source/event_groups.c **** 
 973              		.loc 1 527 3 is_stmt 1 view .LVU279
 527:Middlewares/Third_Party/FreeRTOS/Source/event_groups.c **** 
 974              		.loc 1 527 14 is_stmt 0 view .LVU280
 975 003c 2368     		ldr	r3, [r4]
 527:Middlewares/Third_Party/FreeRTOS/Source/event_groups.c **** 
 976              		.loc 1 527 28 view .LVU281
 977 003e 2B43     		orrs	r3, r3, r5
 978 0040 2360     		str	r3, [r4]
 530:Middlewares/Third_Party/FreeRTOS/Source/event_groups.c **** 		{
 979              		.loc 1 530 3 is_stmt 1 view .LVU282
 509:Middlewares/Third_Party/FreeRTOS/Source/event_groups.c **** EventGroup_t *pxEventBits = ( EventGroup_t * ) xEventGroup;
 980              		.loc 1 509 13 is_stmt 0 view .LVU283
 981 0042 0027     		movs	r7, #0
 530:Middlewares/Third_Party/FreeRTOS/Source/event_groups.c **** 		{
 982              		.loc 1 530 8 view .LVU284
 983 0044 0AE0     		b	.L60
 984              	.LVL72:
 985              	.L61:
 552:Middlewares/Third_Party/FreeRTOS/Source/event_groups.c **** 			{
 986              		.loc 1 552 9 is_stmt 1 view .LVU285
 552:Middlewares/Third_Party/FreeRTOS/Source/event_groups.c **** 			{
 987              		.loc 1 552 44 is_stmt 0 view .LVU286
 988 0046 2168     		ldr	r1, [r4]
 552:Middlewares/Third_Party/FreeRTOS/Source/event_groups.c **** 			{
 989              		.loc 1 552 11 view .LVU287
 990 0048 32EA0101 		bics	r1, r2, r1
 991 004c 05D1     		bne	.L63
 552:Middlewares/Third_Party/FreeRTOS/Source/event_groups.c **** 			{
 992              		.loc 1 552 11 view .LVU288
 993 004e 11E0     		b	.L62
 994              	.LVL73:
 995              	.L64:
 571:Middlewares/Third_Party/FreeRTOS/Source/event_groups.c **** 				}
 996              		.loc 1 571 30 is_stmt 1 view .LVU289
 579:Middlewares/Third_Party/FreeRTOS/Source/event_groups.c **** 			}
 997              		.loc 1 579 5 view .LVU290
 579:Middlewares/Third_Party/FreeRTOS/Source/event_groups.c **** 			}
 998              		.loc 1 579 63 is_stmt 0 view .LVU291
 999 0050 2168     		ldr	r1, [r4]
 579:Middlewares/Third_Party/FreeRTOS/Source/event_groups.c **** 			}
 1000              		.loc 1 579 5 view .LVU292
 1001 0052 41F00071 		orr	r1, r1, #33554432
 1002 0056 FFF7FEFF 		bl	vTaskRemoveFromUnorderedEventList
 1003              	.LVL74:
 1004              	.L63:
 505:Middlewares/Third_Party/FreeRTOS/Source/event_groups.c **** ListItem_t *pxListItem, *pxNext;
 1005              		.loc 1 505 1 view .LVU293
 1006 005a 2846     		mov	r0, r5
ARM GAS  /tmp/cc9c6oGu.s 			page 39


 1007              	.LVL75:
 1008              	.L60:
 530:Middlewares/Third_Party/FreeRTOS/Source/event_groups.c **** 		{
 1009              		.loc 1 530 21 is_stmt 1 view .LVU294
 1010 005c B042     		cmp	r0, r6
 1011 005e 0ED0     		beq	.L68
 532:Middlewares/Third_Party/FreeRTOS/Source/event_groups.c **** 			uxBitsWaitedFor = listGET_LIST_ITEM_VALUE( pxListItem );
 1012              		.loc 1 532 4 view .LVU295
 532:Middlewares/Third_Party/FreeRTOS/Source/event_groups.c **** 			uxBitsWaitedFor = listGET_LIST_ITEM_VALUE( pxListItem );
 1013              		.loc 1 532 11 is_stmt 0 view .LVU296
 1014 0060 4568     		ldr	r5, [r0, #4]
 1015              	.LVL76:
 533:Middlewares/Third_Party/FreeRTOS/Source/event_groups.c **** 			xMatchFound = pdFALSE;
 1016              		.loc 1 533 4 is_stmt 1 view .LVU297
 533:Middlewares/Third_Party/FreeRTOS/Source/event_groups.c **** 			xMatchFound = pdFALSE;
 1017              		.loc 1 533 20 is_stmt 0 view .LVU298
 1018 0062 0368     		ldr	r3, [r0]
 1019              	.LVL77:
 534:Middlewares/Third_Party/FreeRTOS/Source/event_groups.c **** 
 1020              		.loc 1 534 4 is_stmt 1 view .LVU299
 537:Middlewares/Third_Party/FreeRTOS/Source/event_groups.c **** 			uxBitsWaitedFor &= ~eventEVENT_BITS_CONTROL_BYTES;
 1021              		.loc 1 537 4 view .LVU300
 538:Middlewares/Third_Party/FreeRTOS/Source/event_groups.c **** 
 1022              		.loc 1 538 4 view .LVU301
 538:Middlewares/Third_Party/FreeRTOS/Source/event_groups.c **** 
 1023              		.loc 1 538 20 is_stmt 0 view .LVU302
 1024 0064 23F07F42 		bic	r2, r3, #-16777216
 1025              	.LVL78:
 540:Middlewares/Third_Party/FreeRTOS/Source/event_groups.c **** 			{
 1026              		.loc 1 540 4 is_stmt 1 view .LVU303
 540:Middlewares/Third_Party/FreeRTOS/Source/event_groups.c **** 			{
 1027              		.loc 1 540 6 is_stmt 0 view .LVU304
 1028 0068 13F0806F 		tst	r3, #67108864
 1029 006c EBD1     		bne	.L61
 543:Middlewares/Third_Party/FreeRTOS/Source/event_groups.c **** 				{
 1030              		.loc 1 543 5 is_stmt 1 view .LVU305
 543:Middlewares/Third_Party/FreeRTOS/Source/event_groups.c **** 				{
 1031              		.loc 1 543 40 is_stmt 0 view .LVU306
 1032 006e 2168     		ldr	r1, [r4]
 543:Middlewares/Third_Party/FreeRTOS/Source/event_groups.c **** 				{
 1033              		.loc 1 543 7 view .LVU307
 1034 0070 1142     		tst	r1, r2
 1035 0072 F2D0     		beq	.L63
 1036              	.L62:
 1037              	.LVL79:
 565:Middlewares/Third_Party/FreeRTOS/Source/event_groups.c **** 				{
 1038              		.loc 1 565 5 is_stmt 1 view .LVU308
 565:Middlewares/Third_Party/FreeRTOS/Source/event_groups.c **** 				{
 1039              		.loc 1 565 7 is_stmt 0 view .LVU309
 1040 0074 13F0807F 		tst	r3, #16777216
 1041 0078 EAD0     		beq	.L64
 567:Middlewares/Third_Party/FreeRTOS/Source/event_groups.c **** 				}
 1042              		.loc 1 567 6 is_stmt 1 view .LVU310
 567:Middlewares/Third_Party/FreeRTOS/Source/event_groups.c **** 				}
 1043              		.loc 1 567 20 is_stmt 0 view .LVU311
 1044 007a 1743     		orrs	r7, r7, r2
 1045              	.LVL80:
ARM GAS  /tmp/cc9c6oGu.s 			page 40


 567:Middlewares/Third_Party/FreeRTOS/Source/event_groups.c **** 				}
 1046              		.loc 1 567 20 view .LVU312
 1047 007c E8E7     		b	.L64
 1048              	.LVL81:
 1049              	.L68:
 590:Middlewares/Third_Party/FreeRTOS/Source/event_groups.c **** 	}
 1050              		.loc 1 590 3 is_stmt 1 view .LVU313
 590:Middlewares/Third_Party/FreeRTOS/Source/event_groups.c **** 	}
 1051              		.loc 1 590 14 is_stmt 0 view .LVU314
 1052 007e 2368     		ldr	r3, [r4]
 590:Middlewares/Third_Party/FreeRTOS/Source/event_groups.c **** 	}
 1053              		.loc 1 590 28 view .LVU315
 1054 0080 23EA0703 		bic	r3, r3, r7
 1055 0084 2360     		str	r3, [r4]
 592:Middlewares/Third_Party/FreeRTOS/Source/event_groups.c **** 
 1056              		.loc 1 592 2 is_stmt 1 view .LVU316
 592:Middlewares/Third_Party/FreeRTOS/Source/event_groups.c **** 
 1057              		.loc 1 592 11 is_stmt 0 view .LVU317
 1058 0086 FFF7FEFF 		bl	xTaskResumeAll
 1059              	.LVL82:
 594:Middlewares/Third_Party/FreeRTOS/Source/event_groups.c **** }
 1060              		.loc 1 594 2 is_stmt 1 view .LVU318
 595:Middlewares/Third_Party/FreeRTOS/Source/event_groups.c **** /*-----------------------------------------------------------*/
 1061              		.loc 1 595 1 is_stmt 0 view .LVU319
 1062 008a 2068     		ldr	r0, [r4]
 1063 008c F8BD     		pop	{r3, r4, r5, r6, r7, pc}
 595:Middlewares/Third_Party/FreeRTOS/Source/event_groups.c **** /*-----------------------------------------------------------*/
 1064              		.loc 1 595 1 view .LVU320
 1065              		.cfi_endproc
 1066              	.LFE11:
 1068              		.section	.text.xEventGroupSync,"ax",%progbits
 1069              		.align	1
 1070              		.global	xEventGroupSync
 1071              		.syntax unified
 1072              		.thumb
 1073              		.thumb_func
 1075              	xEventGroupSync:
 1076              	.LVL83:
 1077              	.LFB6:
 177:Middlewares/Third_Party/FreeRTOS/Source/event_groups.c **** EventBits_t uxOriginalBitValue, uxReturn;
 1078              		.loc 1 177 1 is_stmt 1 view -0
 1079              		.cfi_startproc
 1080              		@ args = 0, pretend = 0, frame = 0
 1081              		@ frame_needed = 0, uses_anonymous_args = 0
 178:Middlewares/Third_Party/FreeRTOS/Source/event_groups.c **** EventGroup_t *pxEventBits = ( EventGroup_t * ) xEventGroup;
 1082              		.loc 1 178 1 view .LVU322
 179:Middlewares/Third_Party/FreeRTOS/Source/event_groups.c **** BaseType_t xAlreadyYielded;
 1083              		.loc 1 179 1 view .LVU323
 180:Middlewares/Third_Party/FreeRTOS/Source/event_groups.c **** BaseType_t xTimeoutOccurred = pdFALSE;
 1084              		.loc 1 180 1 view .LVU324
 181:Middlewares/Third_Party/FreeRTOS/Source/event_groups.c **** 
 1085              		.loc 1 181 1 view .LVU325
 183:Middlewares/Third_Party/FreeRTOS/Source/event_groups.c **** 	configASSERT( uxBitsToWaitFor != 0 );
 1086              		.loc 1 183 2 view .LVU326
 1087 0000 B2F1807F 		cmp	r2, #16777216
 1088 0004 08D3     		bcc	.L70
 183:Middlewares/Third_Party/FreeRTOS/Source/event_groups.c **** 	configASSERT( uxBitsToWaitFor != 0 );
ARM GAS  /tmp/cc9c6oGu.s 			page 41


 1089              		.loc 1 183 2 discriminator 1 view .LVU327
 1090              	.LBB65:
 1091              	.LBI65:
 191:Middlewares/Third_Party/FreeRTOS/Source/portable/GCC/ARM_CM3/portmacro.h **** {
 1092              		.loc 2 191 30 view .LVU328
 1093              	.LBB66:
 193:Middlewares/Third_Party/FreeRTOS/Source/portable/GCC/ARM_CM3/portmacro.h **** 
 1094              		.loc 2 193 1 view .LVU329
 195:Middlewares/Third_Party/FreeRTOS/Source/portable/GCC/ARM_CM3/portmacro.h **** 	(
 1095              		.loc 2 195 2 view .LVU330
 1096              		.syntax unified
 1097              	@ 195 "Middlewares/Third_Party/FreeRTOS/Source/portable/GCC/ARM_CM3/portmacro.h" 1
 1098 0006 4FF05003 			mov r3, #80												
 1099 000a 83F31188 		msr basepri, r3											
 1100 000e BFF36F8F 		isb														
 1101 0012 BFF34F8F 		dsb														
 1102              	
 1103              	@ 0 "" 2
 1104              	.LVL84:
 1105              		.thumb
 1106              		.syntax unified
 1107              	.L71:
 195:Middlewares/Third_Party/FreeRTOS/Source/portable/GCC/ARM_CM3/portmacro.h **** 	(
 1108              		.loc 2 195 2 is_stmt 0 view .LVU331
 1109              	.LBE66:
 1110              	.LBE65:
 183:Middlewares/Third_Party/FreeRTOS/Source/event_groups.c **** 	configASSERT( uxBitsToWaitFor != 0 );
 1111              		.loc 1 183 2 is_stmt 1 discriminator 3 view .LVU332
 183:Middlewares/Third_Party/FreeRTOS/Source/event_groups.c **** 	configASSERT( uxBitsToWaitFor != 0 );
 1112              		.loc 1 183 2 discriminator 3 view .LVU333
 1113 0016 FEE7     		b	.L71
 1114              	.LVL85:
 1115              	.L70:
 177:Middlewares/Third_Party/FreeRTOS/Source/event_groups.c **** EventBits_t uxOriginalBitValue, uxReturn;
 1116              		.loc 1 177 1 is_stmt 0 view .LVU334
 1117 0018 2DE9F041 		push	{r4, r5, r6, r7, r8, lr}
 1118              	.LCFI15:
 1119              		.cfi_def_cfa_offset 24
 1120              		.cfi_offset 4, -24
 1121              		.cfi_offset 5, -20
 1122              		.cfi_offset 6, -16
 1123              		.cfi_offset 7, -12
 1124              		.cfi_offset 8, -8
 1125              		.cfi_offset 14, -4
 1126 001c 0746     		mov	r7, r0
 1127 001e 0D46     		mov	r5, r1
 1128 0020 1446     		mov	r4, r2
 1129 0022 1E46     		mov	r6, r3
 183:Middlewares/Third_Party/FreeRTOS/Source/event_groups.c **** 	configASSERT( uxBitsToWaitFor != 0 );
 1130              		.loc 1 183 74 is_stmt 1 discriminator 2 view .LVU335
 184:Middlewares/Third_Party/FreeRTOS/Source/event_groups.c **** 	#if ( ( INCLUDE_xTaskGetSchedulerState == 1 ) || ( configUSE_TIMERS == 1 ) )
 1131              		.loc 1 184 2 view .LVU336
 1132 0024 42B9     		cbnz	r2, .L72
 184:Middlewares/Third_Party/FreeRTOS/Source/event_groups.c **** 	#if ( ( INCLUDE_xTaskGetSchedulerState == 1 ) || ( configUSE_TIMERS == 1 ) )
 1133              		.loc 1 184 2 discriminator 1 view .LVU337
 1134              	.LBB67:
 1135              	.LBI67:
ARM GAS  /tmp/cc9c6oGu.s 			page 42


 191:Middlewares/Third_Party/FreeRTOS/Source/portable/GCC/ARM_CM3/portmacro.h **** {
 1136              		.loc 2 191 30 view .LVU338
 1137              	.LBB68:
 193:Middlewares/Third_Party/FreeRTOS/Source/portable/GCC/ARM_CM3/portmacro.h **** 
 1138              		.loc 2 193 1 view .LVU339
 195:Middlewares/Third_Party/FreeRTOS/Source/portable/GCC/ARM_CM3/portmacro.h **** 	(
 1139              		.loc 2 195 2 view .LVU340
 1140              		.syntax unified
 1141              	@ 195 "Middlewares/Third_Party/FreeRTOS/Source/portable/GCC/ARM_CM3/portmacro.h" 1
 1142 0026 4FF05003 			mov r3, #80												
 1143 002a 83F31188 		msr basepri, r3											
 1144 002e BFF36F8F 		isb														
 1145 0032 BFF34F8F 		dsb														
 1146              	
 1147              	@ 0 "" 2
 1148              	.LVL86:
 1149              		.thumb
 1150              		.syntax unified
 1151              	.L73:
 195:Middlewares/Third_Party/FreeRTOS/Source/portable/GCC/ARM_CM3/portmacro.h **** 	(
 1152              		.loc 2 195 2 is_stmt 0 view .LVU341
 1153              	.LBE68:
 1154              	.LBE67:
 184:Middlewares/Third_Party/FreeRTOS/Source/event_groups.c **** 	#if ( ( INCLUDE_xTaskGetSchedulerState == 1 ) || ( configUSE_TIMERS == 1 ) )
 1155              		.loc 1 184 2 is_stmt 1 discriminator 3 view .LVU342
 184:Middlewares/Third_Party/FreeRTOS/Source/event_groups.c **** 	#if ( ( INCLUDE_xTaskGetSchedulerState == 1 ) || ( configUSE_TIMERS == 1 ) )
 1156              		.loc 1 184 2 discriminator 3 view .LVU343
 1157 0036 FEE7     		b	.L73
 1158              	.LVL87:
 1159              	.L72:
 184:Middlewares/Third_Party/FreeRTOS/Source/event_groups.c **** 	#if ( ( INCLUDE_xTaskGetSchedulerState == 1 ) || ( configUSE_TIMERS == 1 ) )
 1160              		.loc 1 184 38 discriminator 2 view .LVU344
 187:Middlewares/Third_Party/FreeRTOS/Source/event_groups.c **** 	}
 1161              		.loc 1 187 3 view .LVU345
 1162 0038 FFF7FEFF 		bl	xTaskGetSchedulerState
 1163              	.LVL88:
 187:Middlewares/Third_Party/FreeRTOS/Source/event_groups.c **** 	}
 1164              		.loc 1 187 3 is_stmt 0 discriminator 1 view .LVU346
 1165 003c 48B9     		cbnz	r0, .L74
 187:Middlewares/Third_Party/FreeRTOS/Source/event_groups.c **** 	}
 1166              		.loc 1 187 3 discriminator 2 view .LVU347
 1167 003e 46B1     		cbz	r6, .L74
 187:Middlewares/Third_Party/FreeRTOS/Source/event_groups.c **** 	}
 1168              		.loc 1 187 3 is_stmt 1 discriminator 7 view .LVU348
 1169              	.LBB69:
 1170              	.LBI69:
 191:Middlewares/Third_Party/FreeRTOS/Source/portable/GCC/ARM_CM3/portmacro.h **** {
 1171              		.loc 2 191 30 view .LVU349
 1172              	.LBB70:
 193:Middlewares/Third_Party/FreeRTOS/Source/portable/GCC/ARM_CM3/portmacro.h **** 
 1173              		.loc 2 193 1 view .LVU350
 195:Middlewares/Third_Party/FreeRTOS/Source/portable/GCC/ARM_CM3/portmacro.h **** 	(
 1174              		.loc 2 195 2 view .LVU351
 1175              		.syntax unified
 1176              	@ 195 "Middlewares/Third_Party/FreeRTOS/Source/portable/GCC/ARM_CM3/portmacro.h" 1
 1177 0040 4FF05003 			mov r3, #80												
 1178 0044 83F31188 		msr basepri, r3											
ARM GAS  /tmp/cc9c6oGu.s 			page 43


 1179 0048 BFF36F8F 		isb														
 1180 004c BFF34F8F 		dsb														
 1181              	
 1182              	@ 0 "" 2
 1183              		.thumb
 1184              		.syntax unified
 1185              	.L75:
 1186              	.LBE70:
 1187              	.LBE69:
 187:Middlewares/Third_Party/FreeRTOS/Source/event_groups.c **** 	}
 1188              		.loc 1 187 3 discriminator 9 view .LVU352
 187:Middlewares/Third_Party/FreeRTOS/Source/event_groups.c **** 	}
 1189              		.loc 1 187 3 discriminator 9 view .LVU353
 1190 0050 FEE7     		b	.L75
 1191              	.L74:
 187:Middlewares/Third_Party/FreeRTOS/Source/event_groups.c **** 	}
 1192              		.loc 1 187 104 discriminator 8 view .LVU354
 191:Middlewares/Third_Party/FreeRTOS/Source/event_groups.c **** 	{
 1193              		.loc 1 191 2 view .LVU355
 1194 0052 FFF7FEFF 		bl	vTaskSuspendAll
 1195              	.LVL89:
 193:Middlewares/Third_Party/FreeRTOS/Source/event_groups.c **** 
 1196              		.loc 1 193 3 view .LVU356
 193:Middlewares/Third_Party/FreeRTOS/Source/event_groups.c **** 
 1197              		.loc 1 193 22 is_stmt 0 view .LVU357
 1198 0056 D7F80080 		ldr	r8, [r7]
 1199              	.LVL90:
 195:Middlewares/Third_Party/FreeRTOS/Source/event_groups.c **** 
 1200              		.loc 1 195 3 is_stmt 1 view .LVU358
 195:Middlewares/Third_Party/FreeRTOS/Source/event_groups.c **** 
 1201              		.loc 1 195 12 is_stmt 0 view .LVU359
 1202 005a 2946     		mov	r1, r5
 1203 005c 3846     		mov	r0, r7
 1204 005e FFF7FEFF 		bl	xEventGroupSetBits
 1205              	.LVL91:
 197:Middlewares/Third_Party/FreeRTOS/Source/event_groups.c **** 		{
 1206              		.loc 1 197 3 is_stmt 1 view .LVU360
 197:Middlewares/Third_Party/FreeRTOS/Source/event_groups.c **** 		{
 1207              		.loc 1 197 30 is_stmt 0 view .LVU361
 1208 0062 48EA0505 		orr	r5, r8, r5
 1209              	.LVL92:
 197:Middlewares/Third_Party/FreeRTOS/Source/event_groups.c **** 		{
 1210              		.loc 1 197 5 view .LVU362
 1211 0066 34EA0503 		bics	r3, r4, r5
 1212 006a 1AD0     		beq	.L85
 210:Middlewares/Third_Party/FreeRTOS/Source/event_groups.c **** 			{
 1213              		.loc 1 210 4 is_stmt 1 view .LVU363
 210:Middlewares/Third_Party/FreeRTOS/Source/event_groups.c **** 			{
 1214              		.loc 1 210 6 is_stmt 0 view .LVU364
 1215 006c FEB9     		cbnz	r6, .L86
 229:Middlewares/Third_Party/FreeRTOS/Source/event_groups.c **** 				xTimeoutOccurred = pdTRUE;
 1216              		.loc 1 229 5 is_stmt 1 view .LVU365
 229:Middlewares/Third_Party/FreeRTOS/Source/event_groups.c **** 				xTimeoutOccurred = pdTRUE;
 1217              		.loc 1 229 14 is_stmt 0 view .LVU366
 1218 006e 3D68     		ldr	r5, [r7]
 1219              	.LVL93:
 230:Middlewares/Third_Party/FreeRTOS/Source/event_groups.c **** 			}
ARM GAS  /tmp/cc9c6oGu.s 			page 44


 1220              		.loc 1 230 5 is_stmt 1 view .LVU367
 1221              	.L77:
 234:Middlewares/Third_Party/FreeRTOS/Source/event_groups.c **** 
 1222              		.loc 1 234 2 view .LVU368
 234:Middlewares/Third_Party/FreeRTOS/Source/event_groups.c **** 
 1223              		.loc 1 234 20 is_stmt 0 view .LVU369
 1224 0070 FFF7FEFF 		bl	xTaskResumeAll
 1225              	.LVL94:
 236:Middlewares/Third_Party/FreeRTOS/Source/event_groups.c **** 	{
 1226              		.loc 1 236 2 is_stmt 1 view .LVU370
 236:Middlewares/Third_Party/FreeRTOS/Source/event_groups.c **** 	{
 1227              		.loc 1 236 4 is_stmt 0 view .LVU371
 1228 0074 96B1     		cbz	r6, .L69
 238:Middlewares/Third_Party/FreeRTOS/Source/event_groups.c **** 		{
 1229              		.loc 1 238 3 is_stmt 1 view .LVU372
 238:Middlewares/Third_Party/FreeRTOS/Source/event_groups.c **** 		{
 1230              		.loc 1 238 5 is_stmt 0 view .LVU373
 1231 0076 48B9     		cbnz	r0, .L80
 240:Middlewares/Third_Party/FreeRTOS/Source/event_groups.c **** 		}
 1232              		.loc 1 240 4 is_stmt 1 view .LVU374
 1233 0078 4FF0E023 		mov	r3, #-536813568
 1234 007c 4FF08052 		mov	r2, #268435456
 1235 0080 C3F8042D 		str	r2, [r3, #3332]
 240:Middlewares/Third_Party/FreeRTOS/Source/event_groups.c **** 		}
 1236              		.loc 1 240 4 view .LVU375
 1237              		.syntax unified
 1238              	@ 240 "Middlewares/Third_Party/FreeRTOS/Source/event_groups.c" 1
 1239 0084 BFF34F8F 		dsb
 1240              	@ 0 "" 2
 240:Middlewares/Third_Party/FreeRTOS/Source/event_groups.c **** 		}
 1241              		.loc 1 240 4 view .LVU376
 1242              	@ 240 "Middlewares/Third_Party/FreeRTOS/Source/event_groups.c" 1
 1243 0088 BFF36F8F 		isb
 1244              	@ 0 "" 2
 240:Middlewares/Third_Party/FreeRTOS/Source/event_groups.c **** 		}
 1245              		.loc 1 240 26 view .LVU377
 1246              		.thumb
 1247              		.syntax unified
 1248              	.L80:
 244:Middlewares/Third_Party/FreeRTOS/Source/event_groups.c **** 		}
 1249              		.loc 1 244 28 view .LVU378
 251:Middlewares/Third_Party/FreeRTOS/Source/event_groups.c **** 
 1250              		.loc 1 251 3 view .LVU379
 251:Middlewares/Third_Party/FreeRTOS/Source/event_groups.c **** 
 1251              		.loc 1 251 14 is_stmt 0 view .LVU380
 1252 008c FFF7FEFF 		bl	uxTaskResetEventItemValue
 1253              	.LVL95:
 251:Middlewares/Third_Party/FreeRTOS/Source/event_groups.c **** 
 1254              		.loc 1 251 14 view .LVU381
 1255 0090 0546     		mov	r5, r0
 1256              	.LVL96:
 253:Middlewares/Third_Party/FreeRTOS/Source/event_groups.c **** 		{
 1257              		.loc 1 253 3 is_stmt 1 view .LVU382
 253:Middlewares/Third_Party/FreeRTOS/Source/event_groups.c **** 		{
 1258              		.loc 1 253 5 is_stmt 0 view .LVU383
 1259 0092 10F0007F 		tst	r0, #33554432
 1260 0096 12D0     		beq	.L87
ARM GAS  /tmp/cc9c6oGu.s 			page 45


 1261              	.LVL97:
 1262              	.L81:
 280:Middlewares/Third_Party/FreeRTOS/Source/event_groups.c **** 
 1263              		.loc 1 280 3 is_stmt 1 view .LVU384
 284:Middlewares/Third_Party/FreeRTOS/Source/event_groups.c **** 	}
 1264              		.loc 1 284 3 view .LVU385
 284:Middlewares/Third_Party/FreeRTOS/Source/event_groups.c **** 	}
 1265              		.loc 1 284 12 is_stmt 0 view .LVU386
 1266 0098 25F07F45 		bic	r5, r5, #-16777216
 1267              	.LVL98:
 287:Middlewares/Third_Party/FreeRTOS/Source/event_groups.c **** 
 1268              		.loc 1 287 2 is_stmt 1 view .LVU387
 290:Middlewares/Third_Party/FreeRTOS/Source/event_groups.c **** 
 1269              		.loc 1 290 2 view .LVU388
 292:Middlewares/Third_Party/FreeRTOS/Source/event_groups.c **** }
 1270              		.loc 1 292 2 view .LVU389
 1271              	.L69:
 293:Middlewares/Third_Party/FreeRTOS/Source/event_groups.c **** /*-----------------------------------------------------------*/
 1272              		.loc 1 293 1 is_stmt 0 view .LVU390
 1273 009c 2846     		mov	r0, r5
 1274 009e BDE8F081 		pop	{r4, r5, r6, r7, r8, pc}
 1275              	.LVL99:
 1276              	.L85:
 200:Middlewares/Third_Party/FreeRTOS/Source/event_groups.c **** 
 1277              		.loc 1 200 4 is_stmt 1 view .LVU391
 204:Middlewares/Third_Party/FreeRTOS/Source/event_groups.c **** 
 1278              		.loc 1 204 4 view .LVU392
 204:Middlewares/Third_Party/FreeRTOS/Source/event_groups.c **** 
 1279              		.loc 1 204 15 is_stmt 0 view .LVU393
 1280 00a2 3B68     		ldr	r3, [r7]
 204:Middlewares/Third_Party/FreeRTOS/Source/event_groups.c **** 
 1281              		.loc 1 204 29 view .LVU394
 1282 00a4 23EA0403 		bic	r3, r3, r4
 1283 00a8 3B60     		str	r3, [r7]
 206:Middlewares/Third_Party/FreeRTOS/Source/event_groups.c **** 		}
 1284              		.loc 1 206 4 is_stmt 1 view .LVU395
 1285              	.LVL100:
 206:Middlewares/Third_Party/FreeRTOS/Source/event_groups.c **** 		}
 1286              		.loc 1 206 17 is_stmt 0 view .LVU396
 1287 00aa 0026     		movs	r6, #0
 1288 00ac E0E7     		b	.L77
 1289              	.LVL101:
 1290              	.L86:
 212:Middlewares/Third_Party/FreeRTOS/Source/event_groups.c **** 
 1291              		.loc 1 212 77 is_stmt 1 view .LVU397
 217:Middlewares/Third_Party/FreeRTOS/Source/event_groups.c **** 
 1292              		.loc 1 217 5 view .LVU398
 1293 00ae 3246     		mov	r2, r6
 1294 00b0 44F0A061 		orr	r1, r4, #83886080
 1295 00b4 381D     		adds	r0, r7, #4
 1296 00b6 FFF7FEFF 		bl	vTaskPlaceOnUnorderedEventList
 1297              	.LVL102:
 223:Middlewares/Third_Party/FreeRTOS/Source/event_groups.c **** 			}
 1298              		.loc 1 223 5 view .LVU399
 223:Middlewares/Third_Party/FreeRTOS/Source/event_groups.c **** 			}
 1299              		.loc 1 223 14 is_stmt 0 view .LVU400
 1300 00ba 0025     		movs	r5, #0
ARM GAS  /tmp/cc9c6oGu.s 			page 46


 1301 00bc D8E7     		b	.L77
 1302              	.LVL103:
 1303              	.L87:
 256:Middlewares/Third_Party/FreeRTOS/Source/event_groups.c **** 			{
 1304              		.loc 1 256 4 is_stmt 1 view .LVU401
 1305 00be FFF7FEFF 		bl	vPortEnterCritical
 1306              	.LVL104:
 258:Middlewares/Third_Party/FreeRTOS/Source/event_groups.c **** 
 1307              		.loc 1 258 5 view .LVU402
 258:Middlewares/Third_Party/FreeRTOS/Source/event_groups.c **** 
 1308              		.loc 1 258 14 is_stmt 0 view .LVU403
 1309 00c2 3D68     		ldr	r5, [r7]
 1310              	.LVL105:
 264:Middlewares/Third_Party/FreeRTOS/Source/event_groups.c **** 				{
 1311              		.loc 1 264 5 is_stmt 1 view .LVU404
 264:Middlewares/Third_Party/FreeRTOS/Source/event_groups.c **** 				{
 1312              		.loc 1 264 7 is_stmt 0 view .LVU405
 1313 00c4 34EA0503 		bics	r3, r4, r5
 1314 00c8 02D0     		beq	.L88
 1315              	.LVL106:
 1316              	.L82:
 270:Middlewares/Third_Party/FreeRTOS/Source/event_groups.c **** 				}
 1317              		.loc 1 270 30 is_stmt 1 view .LVU406
 273:Middlewares/Third_Party/FreeRTOS/Source/event_groups.c **** 
 1318              		.loc 1 273 4 view .LVU407
 1319 00ca FFF7FEFF 		bl	vPortExitCritical
 1320              	.LVL107:
 275:Middlewares/Third_Party/FreeRTOS/Source/event_groups.c **** 		}
 1321              		.loc 1 275 4 view .LVU408
 275:Middlewares/Third_Party/FreeRTOS/Source/event_groups.c **** 		}
 1322              		.loc 1 275 4 is_stmt 0 view .LVU409
 1323 00ce E3E7     		b	.L81
 1324              	.LVL108:
 1325              	.L88:
 266:Middlewares/Third_Party/FreeRTOS/Source/event_groups.c **** 				}
 1326              		.loc 1 266 6 is_stmt 1 view .LVU410
 266:Middlewares/Third_Party/FreeRTOS/Source/event_groups.c **** 				}
 1327              		.loc 1 266 31 is_stmt 0 view .LVU411
 1328 00d0 25EA0404 		bic	r4, r5, r4
 1329              	.LVL109:
 266:Middlewares/Third_Party/FreeRTOS/Source/event_groups.c **** 				}
 1330              		.loc 1 266 31 view .LVU412
 1331 00d4 3C60     		str	r4, [r7]
 1332 00d6 F8E7     		b	.L82
 1333              		.cfi_endproc
 1334              	.LFE6:
 1336              		.section	.text.vEventGroupSetBitsCallback,"ax",%progbits
 1337              		.align	1
 1338              		.global	vEventGroupSetBitsCallback
 1339              		.syntax unified
 1340              		.thumb
 1341              		.thumb_func
 1343              	vEventGroupSetBitsCallback:
 1344              	.LVL110:
 1345              	.LFB13:
 643:Middlewares/Third_Party/FreeRTOS/Source/event_groups.c **** 	( void ) xEventGroupSetBits( pvEventGroup, ( EventBits_t ) ulBitsToSet );
 1346              		.loc 1 643 1 is_stmt 1 view -0
ARM GAS  /tmp/cc9c6oGu.s 			page 47


 1347              		.cfi_startproc
 1348              		@ args = 0, pretend = 0, frame = 0
 1349              		@ frame_needed = 0, uses_anonymous_args = 0
 643:Middlewares/Third_Party/FreeRTOS/Source/event_groups.c **** 	( void ) xEventGroupSetBits( pvEventGroup, ( EventBits_t ) ulBitsToSet );
 1350              		.loc 1 643 1 is_stmt 0 view .LVU414
 1351 0000 08B5     		push	{r3, lr}
 1352              	.LCFI16:
 1353              		.cfi_def_cfa_offset 8
 1354              		.cfi_offset 3, -8
 1355              		.cfi_offset 14, -4
 644:Middlewares/Third_Party/FreeRTOS/Source/event_groups.c **** }
 1356              		.loc 1 644 2 is_stmt 1 view .LVU415
 644:Middlewares/Third_Party/FreeRTOS/Source/event_groups.c **** }
 1357              		.loc 1 644 11 is_stmt 0 view .LVU416
 1358 0002 FFF7FEFF 		bl	xEventGroupSetBits
 1359              	.LVL111:
 645:Middlewares/Third_Party/FreeRTOS/Source/event_groups.c **** /*-----------------------------------------------------------*/
 1360              		.loc 1 645 1 view .LVU417
 1361 0006 08BD     		pop	{r3, pc}
 1362              		.cfi_endproc
 1363              	.LFE13:
 1365              		.section	.text.vEventGroupDelete,"ax",%progbits
 1366              		.align	1
 1367              		.global	vEventGroupDelete
 1368              		.syntax unified
 1369              		.thumb
 1370              		.thumb_func
 1372              	vEventGroupDelete:
 1373              	.LVL112:
 1374              	.LFB12:
 599:Middlewares/Third_Party/FreeRTOS/Source/event_groups.c **** EventGroup_t *pxEventBits = ( EventGroup_t * ) xEventGroup;
 1375              		.loc 1 599 1 is_stmt 1 view -0
 1376              		.cfi_startproc
 1377              		@ args = 0, pretend = 0, frame = 0
 1378              		@ frame_needed = 0, uses_anonymous_args = 0
 599:Middlewares/Third_Party/FreeRTOS/Source/event_groups.c **** EventGroup_t *pxEventBits = ( EventGroup_t * ) xEventGroup;
 1379              		.loc 1 599 1 is_stmt 0 view .LVU419
 1380 0000 10B5     		push	{r4, lr}
 1381              	.LCFI17:
 1382              		.cfi_def_cfa_offset 8
 1383              		.cfi_offset 4, -8
 1384              		.cfi_offset 14, -4
 1385 0002 0446     		mov	r4, r0
 600:Middlewares/Third_Party/FreeRTOS/Source/event_groups.c **** const List_t *pxTasksWaitingForBits = &( pxEventBits->xTasksWaitingForBits );
 1386              		.loc 1 600 1 is_stmt 1 view .LVU420
 1387              	.LVL113:
 601:Middlewares/Third_Party/FreeRTOS/Source/event_groups.c **** 
 1388              		.loc 1 601 1 view .LVU421
 603:Middlewares/Third_Party/FreeRTOS/Source/event_groups.c **** 	{
 1389              		.loc 1 603 2 view .LVU422
 1390 0004 FFF7FEFF 		bl	vTaskSuspendAll
 1391              	.LVL114:
 605:Middlewares/Third_Party/FreeRTOS/Source/event_groups.c **** 
 1392              		.loc 1 605 41 view .LVU423
 607:Middlewares/Third_Party/FreeRTOS/Source/event_groups.c **** 		{
 1393              		.loc 1 607 3 view .LVU424
 1394              	.L92:
ARM GAS  /tmp/cc9c6oGu.s 			page 48


 607:Middlewares/Third_Party/FreeRTOS/Source/event_groups.c **** 		{
 1395              		.loc 1 607 59 view .LVU425
 607:Middlewares/Third_Party/FreeRTOS/Source/event_groups.c **** 		{
 1396              		.loc 1 607 10 is_stmt 0 view .LVU426
 1397 0008 6368     		ldr	r3, [r4, #4]
 607:Middlewares/Third_Party/FreeRTOS/Source/event_groups.c **** 		{
 1398              		.loc 1 607 59 view .LVU427
 1399 000a 93B1     		cbz	r3, .L98
 611:Middlewares/Third_Party/FreeRTOS/Source/event_groups.c **** 			vTaskRemoveFromUnorderedEventList( pxTasksWaitingForBits->xListEnd.pxNext, eventUNBLOCKED_DUE_TO
 1400              		.loc 1 611 4 is_stmt 1 view .LVU428
 1401 000c 2069     		ldr	r0, [r4, #16]
 1402 000e 04F10C03 		add	r3, r4, #12
 1403 0012 9842     		cmp	r0, r3
 1404 0014 04D0     		beq	.L99
 611:Middlewares/Third_Party/FreeRTOS/Source/event_groups.c **** 			vTaskRemoveFromUnorderedEventList( pxTasksWaitingForBits->xListEnd.pxNext, eventUNBLOCKED_DUE_TO
 1405              		.loc 1 611 121 discriminator 2 view .LVU429
 612:Middlewares/Third_Party/FreeRTOS/Source/event_groups.c **** 		}
 1406              		.loc 1 612 4 view .LVU430
 1407 0016 4FF00071 		mov	r1, #33554432
 1408 001a FFF7FEFF 		bl	vTaskRemoveFromUnorderedEventList
 1409              	.LVL115:
 1410 001e F3E7     		b	.L92
 1411              	.L99:
 611:Middlewares/Third_Party/FreeRTOS/Source/event_groups.c **** 			vTaskRemoveFromUnorderedEventList( pxTasksWaitingForBits->xListEnd.pxNext, eventUNBLOCKED_DUE_TO
 1412              		.loc 1 611 4 discriminator 1 view .LVU431
 1413              	.LBB71:
 1414              	.LBI71:
 191:Middlewares/Third_Party/FreeRTOS/Source/portable/GCC/ARM_CM3/portmacro.h **** {
 1415              		.loc 2 191 30 view .LVU432
 1416              	.LBB72:
 193:Middlewares/Third_Party/FreeRTOS/Source/portable/GCC/ARM_CM3/portmacro.h **** 
 1417              		.loc 2 193 1 view .LVU433
 195:Middlewares/Third_Party/FreeRTOS/Source/portable/GCC/ARM_CM3/portmacro.h **** 	(
 1418              		.loc 2 195 2 view .LVU434
 1419              		.syntax unified
 1420              	@ 195 "Middlewares/Third_Party/FreeRTOS/Source/portable/GCC/ARM_CM3/portmacro.h" 1
 1421 0020 4FF05003 			mov r3, #80												
 1422 0024 83F31188 		msr basepri, r3											
 1423 0028 BFF36F8F 		isb														
 1424 002c BFF34F8F 		dsb														
 1425              	
 1426              	@ 0 "" 2
 1427              		.thumb
 1428              		.syntax unified
 1429              	.L94:
 1430              	.LBE72:
 1431              	.LBE71:
 611:Middlewares/Third_Party/FreeRTOS/Source/event_groups.c **** 			vTaskRemoveFromUnorderedEventList( pxTasksWaitingForBits->xListEnd.pxNext, eventUNBLOCKED_DUE_TO
 1432              		.loc 1 611 4 discriminator 3 view .LVU435
 611:Middlewares/Third_Party/FreeRTOS/Source/event_groups.c **** 			vTaskRemoveFromUnorderedEventList( pxTasksWaitingForBits->xListEnd.pxNext, eventUNBLOCKED_DUE_TO
 1433              		.loc 1 611 4 discriminator 3 view .LVU436
 1434 0030 FEE7     		b	.L94
 1435              	.L98:
 625:Middlewares/Third_Party/FreeRTOS/Source/event_groups.c **** 			{
 1436              		.loc 1 625 4 view .LVU437
 625:Middlewares/Third_Party/FreeRTOS/Source/event_groups.c **** 			{
 1437              		.loc 1 625 19 is_stmt 0 view .LVU438
ARM GAS  /tmp/cc9c6oGu.s 			page 49


 1438 0032 237F     		ldrb	r3, [r4, #28]	@ zero_extendqisi2
 625:Middlewares/Third_Party/FreeRTOS/Source/event_groups.c **** 			{
 1439              		.loc 1 625 6 view .LVU439
 1440 0034 13B1     		cbz	r3, .L100
 1441              	.L96:
 631:Middlewares/Third_Party/FreeRTOS/Source/event_groups.c **** 			}
 1442              		.loc 1 631 29 is_stmt 1 view .LVU440
 636:Middlewares/Third_Party/FreeRTOS/Source/event_groups.c **** }
 1443              		.loc 1 636 2 view .LVU441
 636:Middlewares/Third_Party/FreeRTOS/Source/event_groups.c **** }
 1444              		.loc 1 636 11 is_stmt 0 view .LVU442
 1445 0036 FFF7FEFF 		bl	xTaskResumeAll
 1446              	.LVL116:
 637:Middlewares/Third_Party/FreeRTOS/Source/event_groups.c **** /*-----------------------------------------------------------*/
 1447              		.loc 1 637 1 view .LVU443
 1448 003a 10BD     		pop	{r4, pc}
 1449              	.LVL117:
 1450              	.L100:
 627:Middlewares/Third_Party/FreeRTOS/Source/event_groups.c **** 			}
 1451              		.loc 1 627 5 is_stmt 1 view .LVU444
 1452 003c 2046     		mov	r0, r4
 1453 003e FFF7FEFF 		bl	vPortFree
 1454              	.LVL118:
 1455 0042 F8E7     		b	.L96
 1456              		.cfi_endproc
 1457              	.LFE12:
 1459              		.section	.text.xEventGroupSetBitsFromISR,"ax",%progbits
 1460              		.align	1
 1461              		.global	xEventGroupSetBitsFromISR
 1462              		.syntax unified
 1463              		.thumb
 1464              		.thumb_func
 1466              	xEventGroupSetBitsFromISR:
 1467              	.LVL119:
 1468              	.LFB16:
 689:Middlewares/Third_Party/FreeRTOS/Source/event_groups.c **** /*-----------------------------------------------------------*/
 690:Middlewares/Third_Party/FreeRTOS/Source/event_groups.c **** 
 691:Middlewares/Third_Party/FreeRTOS/Source/event_groups.c **** #if ( ( configUSE_TRACE_FACILITY == 1 ) && ( INCLUDE_xTimerPendFunctionCall == 1 ) && ( configUSE_T
 692:Middlewares/Third_Party/FreeRTOS/Source/event_groups.c **** 
 693:Middlewares/Third_Party/FreeRTOS/Source/event_groups.c **** 	BaseType_t xEventGroupSetBitsFromISR( EventGroupHandle_t xEventGroup, const EventBits_t uxBitsToSe
 694:Middlewares/Third_Party/FreeRTOS/Source/event_groups.c **** 	{
 1469              		.loc 1 694 2 view -0
 1470              		.cfi_startproc
 1471              		@ args = 0, pretend = 0, frame = 0
 1472              		@ frame_needed = 0, uses_anonymous_args = 0
 1473              		.loc 1 694 2 is_stmt 0 view .LVU446
 1474 0000 08B5     		push	{r3, lr}
 1475              	.LCFI18:
 1476              		.cfi_def_cfa_offset 8
 1477              		.cfi_offset 3, -8
 1478              		.cfi_offset 14, -4
 1479 0002 1346     		mov	r3, r2
 695:Middlewares/Third_Party/FreeRTOS/Source/event_groups.c **** 	BaseType_t xReturn;
 1480              		.loc 1 695 2 is_stmt 1 view .LVU447
 696:Middlewares/Third_Party/FreeRTOS/Source/event_groups.c **** 
 697:Middlewares/Third_Party/FreeRTOS/Source/event_groups.c **** 		traceEVENT_GROUP_SET_BITS_FROM_ISR( xEventGroup, uxBitsToSet );
 1481              		.loc 1 697 65 view .LVU448
ARM GAS  /tmp/cc9c6oGu.s 			page 50


 698:Middlewares/Third_Party/FreeRTOS/Source/event_groups.c **** 		xReturn = xTimerPendFunctionCallFromISR( vEventGroupSetBitsCallback, ( void * ) xEventGroup, ( ui
 1482              		.loc 1 698 3 view .LVU449
 1483              		.loc 1 698 13 is_stmt 0 view .LVU450
 1484 0004 0A46     		mov	r2, r1
 1485              	.LVL120:
 1486              		.loc 1 698 13 view .LVU451
 1487 0006 0146     		mov	r1, r0
 1488              	.LVL121:
 1489              		.loc 1 698 13 view .LVU452
 1490 0008 0148     		ldr	r0, .L103
 1491              	.LVL122:
 1492              		.loc 1 698 13 view .LVU453
 1493 000a FFF7FEFF 		bl	xTimerPendFunctionCallFromISR
 1494              	.LVL123:
 699:Middlewares/Third_Party/FreeRTOS/Source/event_groups.c **** 
 700:Middlewares/Third_Party/FreeRTOS/Source/event_groups.c **** 		return xReturn;
 1495              		.loc 1 700 3 is_stmt 1 view .LVU454
 701:Middlewares/Third_Party/FreeRTOS/Source/event_groups.c **** 	}
 1496              		.loc 1 701 2 is_stmt 0 view .LVU455
 1497 000e 08BD     		pop	{r3, pc}
 1498              	.L104:
 1499              		.align	2
 1500              	.L103:
 1501 0010 00000000 		.word	vEventGroupSetBitsCallback
 1502              		.cfi_endproc
 1503              	.LFE16:
 1505              		.section	.text.uxEventGroupGetNumber,"ax",%progbits
 1506              		.align	1
 1507              		.global	uxEventGroupGetNumber
 1508              		.syntax unified
 1509              		.thumb
 1510              		.thumb_func
 1512              	uxEventGroupGetNumber:
 1513              	.LVL124:
 1514              	.LFB17:
 702:Middlewares/Third_Party/FreeRTOS/Source/event_groups.c **** 
 703:Middlewares/Third_Party/FreeRTOS/Source/event_groups.c **** #endif
 704:Middlewares/Third_Party/FreeRTOS/Source/event_groups.c **** /*-----------------------------------------------------------*/
 705:Middlewares/Third_Party/FreeRTOS/Source/event_groups.c **** 
 706:Middlewares/Third_Party/FreeRTOS/Source/event_groups.c **** #if (configUSE_TRACE_FACILITY == 1)
 707:Middlewares/Third_Party/FreeRTOS/Source/event_groups.c **** 
 708:Middlewares/Third_Party/FreeRTOS/Source/event_groups.c **** 	UBaseType_t uxEventGroupGetNumber( void* xEventGroup )
 709:Middlewares/Third_Party/FreeRTOS/Source/event_groups.c **** 	{
 1515              		.loc 1 709 2 is_stmt 1 view -0
 1516              		.cfi_startproc
 1517              		@ args = 0, pretend = 0, frame = 0
 1518              		@ frame_needed = 0, uses_anonymous_args = 0
 1519              		@ link register save eliminated.
 710:Middlewares/Third_Party/FreeRTOS/Source/event_groups.c **** 	UBaseType_t xReturn;
 1520              		.loc 1 710 2 view .LVU457
 711:Middlewares/Third_Party/FreeRTOS/Source/event_groups.c **** 	EventGroup_t *pxEventBits = ( EventGroup_t * ) xEventGroup;
 1521              		.loc 1 711 2 view .LVU458
 712:Middlewares/Third_Party/FreeRTOS/Source/event_groups.c **** 
 713:Middlewares/Third_Party/FreeRTOS/Source/event_groups.c **** 		if( xEventGroup == NULL )
 1522              		.loc 1 713 3 view .LVU459
 1523              		.loc 1 713 5 is_stmt 0 view .LVU460
 1524 0000 08B1     		cbz	r0, .L107
ARM GAS  /tmp/cc9c6oGu.s 			page 51


 714:Middlewares/Third_Party/FreeRTOS/Source/event_groups.c **** 		{
 715:Middlewares/Third_Party/FreeRTOS/Source/event_groups.c **** 			xReturn = 0;
 716:Middlewares/Third_Party/FreeRTOS/Source/event_groups.c **** 		}
 717:Middlewares/Third_Party/FreeRTOS/Source/event_groups.c **** 		else
 718:Middlewares/Third_Party/FreeRTOS/Source/event_groups.c **** 		{
 719:Middlewares/Third_Party/FreeRTOS/Source/event_groups.c **** 			xReturn = pxEventBits->uxEventGroupNumber;
 1525              		.loc 1 719 4 is_stmt 1 view .LVU461
 1526              		.loc 1 719 12 is_stmt 0 view .LVU462
 1527 0002 8069     		ldr	r0, [r0, #24]
 1528              	.LVL125:
 1529              		.loc 1 719 12 view .LVU463
 1530 0004 7047     		bx	lr
 1531              	.LVL126:
 1532              	.L107:
 715:Middlewares/Third_Party/FreeRTOS/Source/event_groups.c **** 		}
 1533              		.loc 1 715 12 view .LVU464
 1534 0006 0020     		movs	r0, #0
 1535              	.LVL127:
 720:Middlewares/Third_Party/FreeRTOS/Source/event_groups.c **** 		}
 721:Middlewares/Third_Party/FreeRTOS/Source/event_groups.c **** 
 722:Middlewares/Third_Party/FreeRTOS/Source/event_groups.c **** 		return xReturn;
 1536              		.loc 1 722 3 is_stmt 1 view .LVU465
 723:Middlewares/Third_Party/FreeRTOS/Source/event_groups.c **** 	}
 1537              		.loc 1 723 2 is_stmt 0 view .LVU466
 1538 0008 7047     		bx	lr
 1539              		.cfi_endproc
 1540              	.LFE17:
 1542              		.section	.text.vEventGroupSetNumber,"ax",%progbits
 1543              		.align	1
 1544              		.global	vEventGroupSetNumber
 1545              		.syntax unified
 1546              		.thumb
 1547              		.thumb_func
 1549              	vEventGroupSetNumber:
 1550              	.LVL128:
 1551              	.LFB18:
 724:Middlewares/Third_Party/FreeRTOS/Source/event_groups.c **** 
 725:Middlewares/Third_Party/FreeRTOS/Source/event_groups.c **** #endif /* configUSE_TRACE_FACILITY */
 726:Middlewares/Third_Party/FreeRTOS/Source/event_groups.c **** /*-----------------------------------------------------------*/
 727:Middlewares/Third_Party/FreeRTOS/Source/event_groups.c **** 
 728:Middlewares/Third_Party/FreeRTOS/Source/event_groups.c **** #if ( configUSE_TRACE_FACILITY == 1 )
 729:Middlewares/Third_Party/FreeRTOS/Source/event_groups.c **** 
 730:Middlewares/Third_Party/FreeRTOS/Source/event_groups.c **** 	void vEventGroupSetNumber( void * xEventGroup, UBaseType_t uxEventGroupNumber )
 731:Middlewares/Third_Party/FreeRTOS/Source/event_groups.c **** 	{
 1552              		.loc 1 731 2 is_stmt 1 view -0
 1553              		.cfi_startproc
 1554              		@ args = 0, pretend = 0, frame = 0
 1555              		@ frame_needed = 0, uses_anonymous_args = 0
 1556              		@ link register save eliminated.
 732:Middlewares/Third_Party/FreeRTOS/Source/event_groups.c **** 		( ( EventGroup_t * ) xEventGroup )->uxEventGroupNumber = uxEventGroupNumber;
 1557              		.loc 1 732 3 view .LVU468
 1558              		.loc 1 732 58 is_stmt 0 view .LVU469
 1559 0000 8161     		str	r1, [r0, #24]
 733:Middlewares/Third_Party/FreeRTOS/Source/event_groups.c **** 	}
 1560              		.loc 1 733 2 view .LVU470
 1561 0002 7047     		bx	lr
 1562              		.cfi_endproc
ARM GAS  /tmp/cc9c6oGu.s 			page 52


 1563              	.LFE18:
 1565              		.text
 1566              	.Letext0:
 1567              		.file 3 "/usr/lib/gcc/arm-none-eabi/13.2.1/include/stddef.h"
 1568              		.file 4 "/usr/lib/gcc/arm-none-eabi/13.2.1/include/stdint.h"
 1569              		.file 5 "Middlewares/Third_Party/FreeRTOS/Source/include/FreeRTOS.h"
 1570              		.file 6 "Middlewares/Third_Party/FreeRTOS/Source/include/list.h"
 1571              		.file 7 "Middlewares/Third_Party/FreeRTOS/Source/include/timers.h"
 1572              		.file 8 "Middlewares/Third_Party/FreeRTOS/Source/include/event_groups.h"
 1573              		.file 9 "Middlewares/Third_Party/FreeRTOS/Source/include/portable.h"
 1574              		.file 10 "Middlewares/Third_Party/FreeRTOS/Source/include/task.h"
ARM GAS  /tmp/cc9c6oGu.s 			page 53

